(dp0
V09-10-08-google-tech-talk
p1
(Vhkn_everyone
p2
Vhkn_everyone
p3
tp4
sV09-02-08-new-student-reception
p5
(Vhkn_officer
p6
Vhkn_officer
p7
tp8
sV09-11-08-why-go-to-graduate-school-and-how-to-get-into-the-program-of-your-dreams
p9
(Vhkn_everyone
p10
Vhkn_everyone
p11
tp12
sV09-11-08-microsoft-tech-talk
p13
(Vhkn_everyone
p14
Vhkn_everyone
p15
tp16
sV09-15-08-citadel-infosession
p17
(Vhkn_everyone
p18
Vhkn_everyone
p19
tp20
sV11-09-08-microsoft-oh
p21
(Vhkn_everyone
p22
Vhkn_everyone
p23
tp24
sV09-05-08-officer-retreat
p25
(Vhkn_officer
p26
Vhkn_officer
p27
tp28
sV09-04-08-kips-mixer
p29
(Vhkn_officer
p30
Vhkn_officer
p31
tp32
sV09-10-08-google-lightning-talks
p33
(Vhkn_everyone
p34
Vhkn_everyone
p35
tp36
sV09-03-08-members-gelato-night
p37
(Vhkn_member_plus
p38
Vhkn_member_plus
p39
tp40
sV09-09-08-fundamentals-of-applying-to-graduate-school
p41
(Vhkn_everyone
p42
Vhkn_everyone
p43
tp44
sV09-02-08-activities-planning-meeting
p45
(Vhkn_officer
p46
Vhkn_officer
p47
tp48
s.