(dp0
V10-05-08-kayaking
p1
(Vhkn_everyone
p2
Vhkn_candidate_plus
p3
tp4
sV09-29-08-candidate-convos
p5
(Vhkn_everyone
p6
Vhkn_candidate_plus
p7
tp8
sV10-05-08-big-c-hike
p9
(Vhkn_everyone
p10
Vhkn_candidate_plus
p11
tp12
sV11-16-08-beach-bonfire
p13
(Vhkn_everyone
p14
Vhkn_candidate_plus
p15
tp16
sV11-21-08-lunch-with-the-president
p17
(Vhkn_everyone
p18
Vhkn_candidate_plus
p19
tp20
sV09-12-08-members-rock-climbing
p21
(Vhkn_everyone
p22
Vhkn_candidate_plus
p23
tp24
sV10-18-08-photo-scavenger-hunt
p25
(Vhkn_everyone
p26
Vhkn_candidate_plus
p27
tp28
sV11-15-08-picnic
p29
(Vhkn_everyone
p30
Vhkn_candidate_plus
p31
tp32
sV09-02-08-activities-planning-meeting
p33
(Vhkn_officer
p34
Vhkn_officer
p35
tp36
sV10-25-08-alameda-food-bank
p37
(Vhkn_everyone
p38
Vhkn_candidate_plus
p39
tp40
sV11-07-08-alumni-appreciation-dinner
p41
(Vhkn_everyone
p42
Vhkn_candidate_plus
p43
tp44
sV09-02-08-new-student-reception
p45
(Vhkn_officer
p46
Vhkn_officer
p47
tp48
sV09-11-08-microsoft-tech-talk
p49
(Vhkn_everyone
p50
Vhkn_everyone
p51
tp52
sV11-14-08-alumni-appreciation-dinner-alternate
p53
(Vhkn_everyone
p54
Vhkn_candidate_plus
p55
tp56
sV10-07-08-bowling
p57
(Vhkn_everyone
p58
Vhkn_candidate_plus
p59
tp60
sV10-30-08-pumpkin-carving
p61
(Vhkn_everyone
p62
Vhkn_candidate_plus
p63
tp64
sV09-05-08-officer-retreat
p65
(Vhkn_officer
p66
Vhkn_officer
p67
tp68
sV10-23-08-game-night
p69
(Vhkn_everyone
p70
Vhkn_candidate_plus
p71
tp72
sV09-03-08-members-gelato-night
p73
(Vhkn_member_plus
p74
Vhkn_member_plus
p75
tp76
sV11-02-08-paintball
p77
(Vhkn_everyone
p78
Vhkn_candidate_plus
p79
tp80
sV11-02-08-big-c-hike-alternate
p81
(Vhkn_everyone
p82
Vhkn_candidate_plus
p83
tp84
sV10-30-08-general-meeting-2
p85
(Vhkn_everyone
p86
Vhkn_candidate_plus
p87
tp88
sV11-04-08-movie-night
p89
(Vhkn_everyone
p90
Vhkn_candidate_plus
p91
tp92
sV09-26-08-candidate-convos
p93
(Vhkn_everyone
p94
Vhkn_candidate_plus
p95
tp96
sV10-19-08-blue-angels-alternate
p97
(Vhkn_everyone
p98
Vhkn_candidate_plus
p99
tp100
sV09-10-08-google-lightning-talks
p101
(Vhkn_everyone
p102
Vhkn_everyone
p103
tp104
sV09-26-08-ice-cream-social
p105
(Vhkn_everyone
p106
Vhkn_candidate_plus
p107
tp108
sV10-12-08-blue-angels
p109
(Vhkn_everyone
p110
Vhkn_candidate_plus
p111
tp112
sV11-07-08-engineering-sports-night-alternate
p113
(Vhkn_everyone
p114
Vhkn_candidate_plus
p115
tp116
sV10-24-08-broomball
p117
(Vhkn_everyone
p118
Vhkn_candidate_plus
p119
tp120
sV09-04-08-kips-mixer
p121
(Vhkn_officer
p122
Vhkn_officer
p123
tp124
sV11-20-08-sushi-night
p125
(Vhkn_everyone
p126
Vhkn_candidate_plus
p127
tp128
sV09-09-08-fundamentals-of-applying-to-graduate-school
p129
(Vhkn_everyone
p130
Vhkn_everyone
p131
tp132
sV11-09-08-microsoft-oh
p133
(Vhkn_everyone
p134
Vhkn_everyone
p135
tp136
sV09-20-08-members-potluck
p137
(Vhkn_everyone
p138
Vhkn_candidate_plus
p139
tp140
sV10-03-08-alumni-broomball
p141
(Vhkn_everyone
p142
Vhkn_candidate_plus
p143
tp144
sV11-14-08-engineering-sports-night-alternate
p145
(Vhkn_everyone
p146
Vhkn_candidate_plus
p147
tp148
sV09-10-08-google-tech-talk
p149
(Vhkn_everyone
p150
Vhkn_everyone
p151
tp152
sV11-23-08-paintball-alternate
p153
(Vhkn_everyone
p154
Vhkn_candidate_plus
p155
tp156
sV09-24-08-candidate-meeting
p157
(Vhkn_everyone
p158
Vhkn_candidate_plus
p159
tp160
sV09-15-08-citadel-infosession
p161
(Vhkn_everyone
p162
Vhkn_everyone
p163
tp164
sV10-07-08-general-meeting-1
p165
(Vhkn_everyone
p166
Vhkn_candidate_plus
p167
tp168
sV10-17-08-rock-climbing
p169
(Vhkn_everyone
p170
Vhkn_candidate_plus
p171
tp172
sV10-19-08-kayaking-alternate
p173
(Vhkn_everyone
p174
Vhkn_candidate_plus
p175
tp176
sV11-12-08-general-meeting-3
p177
(Vhkn_everyone
p178
Vhkn_candidate_plus
p179
tp180
sV11-08-08-renew-the-zoo
p181
(Vhkn_everyone
p182
Vhkn_candidate_plus
p183
tp184
sV09-11-08-why-go-to-graduate-school-and-how-to-get-into-the-program-of-your-dreams
p185
(Vhkn_everyone
p186
Vhkn_everyone
p187
tp188
sV10-08-08-fentons
p189
(Vhkn_everyone
p190
Vhkn_candidate_plus
p191
tp192
s.