(dp0
V09-02-08-new-student-reception
p1
(Vhkn_officer
p2
Vhkn_officer
p3
tp4
sV09-11-08-microsoft-tech-talk
p5
(Vhkn_everyone
p6
Vhkn_everyone
p7
tp8
sV09-15-08-citadel-infosession
p9
(Vhkn_everyone
p10
Vhkn_everyone
p11
tp12
sV09-05-08-officer-retreat
p13
(Vhkn_officer
p14
Vhkn_officer
p15
tp16
sV09-04-08-kips-mixer
p17
(Vhkn_officer
p18
Vhkn_officer
p19
tp20
sV09-03-08-members-gelato-night
p21
(Vhkn_member_plus
p22
Vhkn_member_plus
p23
tp24
sV09-15-08-amazon-day
p25
(Vhkn_everyone
p26
Vhkn_everyone
p27
tp28
sV09-02-08-activities-planning-meeting
p29
(Vhkn_officer
p30
Vhkn_officer
p31
tp32
s.