(lp0
(S'aimeem@berkeley.edu'
p1
S'pub'
p2
S'fa07'
p3
tp4
a(S'alan_wu@berkeley.edu'
p5
S'pub'
p6
g3
tp7
a(S'albertlai@berkeley.edu'
p8
S'pres'
p9
g3
tp10
a(S'akovacs@berkeley.edu'
p11
S'bridge'
p12
g3
tp13
a(S'benblackman@berkeley.edu'
p14
S'rsec'
p15
g3
tp16
a(S'chrisblay@gmail.com'
p17
S'examfiles'
p18
g3
tp19
a(S'dlo@berkeley.edu'
p20
S'tutor'
p21
g3
tp22
a(S'ed_chen@berkeley.edu'
p23
S'bridge'
p24
g3
tp25
a(S'eugene_li@berkeley.edu'
p26
S'alumrel'
p27
g3
tp28
a(S'hzarka@berkeley.edu'
p29
S'compserv'
p30
g3
tp31
a(S'charles_scool@berkeley.edu'
p32
S'act'
p33
g3
tp34
a(S'jeffcjensen@berkeley.edu'
p35
S'deprel'
p36
g3
tp37
a(S'zhangz@berkeley.edu'
p38
S'bridge'
p39
g3
tp40
a(S'wongjy@berkeley.edu'
p41
S'indrel'
p42
g3
tp43
a(S'jtran87@berkeley.edu'
p44
S'csec'
p45
g3
tp46
a(S'kmowery@gmail.com'
p47
S'compserv'
p48
g3
tp49
a(S'lahini@berkeley.edu'
p50
S'vp'
p51
g3
tp52
a(S'mehdi_abderezai@berkeley.edu'
p53
S'indrel'
p54
g3
tp55
a(S'mawkillio_chang@berkeley.edu'
p56
S'tres'
p57
g3
tp58
a(S'michelleau@berkeley.edu'
p59
S'tutor'
p60
g3
tp61
a(S'ackner@berkeley.edu'
p62
S'studrel'
p63
g3
tp64
a(S'patrickau09@berkeley.edu'
p65
S'indrel'
p66
g3
tp67
a(S'gnehzr@berkeley.edu'
p68
S'compserv'
p69
g3
tp70
a(S'wsandy@berkeley.edu'
p71
S'act'
p72
g3
tp73
a(S'shahbawany@gmail.com'
p74
S'bridge'
p75
g3
tp76
a(S'suhaasp@berkeley.edu'
p77
S'ejc'
p78
g3
tp79
a(S'sshum@berkeley.edu'
p80
S'indrel'
p81
g3
tp82
a(S'nihalani@berkeley.edu'
p83
S'act'
p84
g3
tp85
a.