(dp0
S'fa07'
p1
(lp2
(S'aimeem@berkeley.edu'
p3
S'aimee'
p4
S'pub'
p5
g1
tp6
a(S'alan_wu@berkeley.edu'
p7
S'alanwu'
p8
S'pub'
p9
S'fa07'
p10
tp11
a(S'albertlai@berkeley.edu'
p12
S'albert'
p13
S'pres'
p14
S'fa07'
p15
tp16
a(S'akovacs@berkeley.edu'
p17
S'akovacs'
p18
S'bridge'
p19
S'fa07'
p20
tp21
a(S'benblackman@berkeley.edu'
p22
S'blackman'
p23
S'rsec'
p24
S'fa07'
p25
tp26
a(S'chrisblay@gmail.com'
p27
S'clay'
p28
S'examfiles'
p29
S'fa07'
p30
tp31
a(S'dlo@berkeley.edu'
p32
S'darren'
p33
S'tutor'
p34
S'fa07'
p35
tp36
a(S'ed_chen@berkeley.edu'
p37
S'edchen'
p38
S'bridge'
p39
S'fa07'
p40
tp41
a(S'eugene_li@berkeley.edu'
p42
S'eugene'
p43
S'alumrel'
p44
S'fa07'
p45
tp46
a(S'hzarka@berkeley.edu'
p47
S'hzarka'
p48
S'compserv'
p49
S'fa07'
p50
tp51
a(S'charles_scool@berkeley.edu'
p52
S'huhong'
p53
S'act'
p54
S'fa07'
p55
tp56
a(S'jeffcjensen@berkeley.edu'
p57
S'jeffcjensen'
p58
S'deprel'
p59
S'fa07'
p60
tp61
a(S'zhangz@berkeley.edu'
p62
S'zhangz'
p63
S'bridge'
p64
S'fa07'
p65
tp66
a(S'wongjy@berkeley.edu'
p67
S'wongjy'
p68
S'indrel'
p69
S'fa07'
p70
tp71
a(S'jtran87@berkeley.edu'
p72
S'jtran'
p73
S'csec'
p74
S'fa07'
p75
tp76
a(S'kmowery@gmail.com'
p77
S'kmowery'
p78
S'compserv'
p79
S'fa07'
p80
tp81
a(S'lahini@berkeley.edu'
p82
S'lahini'
p83
S'vp'
p84
S'fa07'
p85
tp86
a(S'mehdi_abderezai@berkeley.edu'
p87
S'mabderezai'
p88
S'indrel'
p89
S'fa07'
p90
tp91
a(S'mawkillio_chang@berkeley.edu'
p92
S'mchang'
p93
S'treas'
p94
S'fa07'
p95
tp96
a(S'michelleau@berkeley.edu'
p97
S'michelleau'
p98
S'tutor'
p99
S'fa07'
p100
tp101
a(S'ackner@berkeley.edu'
p102
S'ackner'
p103
S'studrel'
p104
S'fa07'
p105
tp106
a(S'patrickau09@berkeley.edu'
p107
S'patrick'
p108
S'indrel'
p109
S'fa07'
p110
tp111
a(S'gnehzr@berkeley.edu'
p112
S'rzheng'
p113
S'compserv'
p114
S'fa07'
p115
tp116
a(S'wsandy@berkeley.edu'
p117
S'wsandy'
p118
S'act'
p119
S'fa07'
p120
tp121
a(S'shahbawany@gmail.com'
p122
S'shah'
p123
S'bridge'
p124
S'fa07'
p125
tp126
a(S'suhaasp@berkeley.edu'
p127
S'suhaas'
p128
S'ejc'
p129
S'fa07'
p130
tp131
a(S'sshum@berkeley.edu'
p132
S'sshum'
p133
S'indrel'
p134
S'fa07'
p135
tp136
a(S'nihalani@berkeley.edu'
p137
S'vishay'
p138
S'act'
p139
S'fa07'
p140
tp141
asS'sp08'
p142
(lp143
(S'nihalani@berkeley.edu'
p144
S'vishay'
p145
S'alumrel'
p146
g142
tp147
a(S'jtran87@berkeley.edu'
p148
S'jtran'
p149
S'pres'
p150
S'sp08'
p151
tp152
a(S'ackner@berkeley.edu'
p153
S'ackner'
p154
S'vp'
p155
S'sp08'
p156
tp157
a(S'suhaasp@berkeley.edu'
p158
S'suhaas'
p159
S'deprel'
p160
S'sp08'
p161
tp162
a(S'dlo@berkeley.edu'
p163
S'darren'
p164
S'csec'
p165
S'sp08'
p166
tp167
a(S'michelleau@berkeley.edu'
p168
S'michelleau'
p169
S'tutor'
p170
S'sp08'
p171
tp172
a(S'mawkillio_chang@berkeley.edu'
p173
S'mchang'
p174
S'treas'
p175
S'sp08'
p176
tp177
a(S'mxu87@berkeley.edu'
p178
S'mxu'
p179
S'rsec'
p180
S'sp08'
p181
tp182
a(S'chrisblay@gmail.com'
p183
S'clay'
p184
S'examfiles'
p185
S'sp08'
p186
tp187
a(S'james_liao9@yahoo.com'
p188
S'jliao'
p189
S'pub'
p190
S'sp08'
p191
tp192
a(S'jprudhomme@berkeley.edu'
p193
S'jprudhomme'
p194
S'compserv'
p195
S'sp08'
p196
tp197
a(S'georgechen@berkeley.edu'
p198
S'gchen'
p199
S'bridge'
p200
S'sp08'
p201
tp202
a(S'surajgowda@berkeley.edu'
p203
S'sgowda'
p204
S'tutor'
p205
S'sp08'
p206
tp207
a(S'ingy@berkeley.edu'
p208
S'iliu'
p209
S'indrel'
p210
S'sp08'
p211
tp212
a(S'shervination@berkeley.edu'
p213
S'sjavdani'
p214
S'indrel'
p215
S'sp08'
p216
tp217
a(S'kmowery@gmail.com'
p218
S'kmowery'
p219
S'bridge'
p220
S'sp08'
p221
tp222
a(S'angelaxhsueh@gmail.com'
p223
S'ahsueh'
p224
S'act'
p225
S'sp08'
p226
tp227
a(S'zhangz@berkeley.edu'
p228
S'zhangz'
p229
S'studrel'
p230
S'sp08'
p231
tp232
a(S'gnehzr@berkeley.edu'
p233
S'rzheng'
p234
S'compserv'
p235
S'sp08'
p236
tp237
a(S'wsandy@berkeley.edu'
p238
S'wsandy'
p239
S'act'
p240
S'sp08'
p241
tp242
a(S'niels@berkeley.edu'
p243
S'njoubert'
p244
S'indrel'
p245
S'sp08'
p246
tp247
a(S'briankim@berkeley.edu'
p248
S'bkim'
p249
S'compserv'
p250
S'sp08'
p251
tp252
a(S'brianrtaylor@berkeley.edu'
p253
S'btaylor'
p254
S'bridge'
p255
S'sp08'
p256
tp257
a(S'brlam@berkeley.edu'
p258
S'blam'
p259
S'pub'
p260
S'sp08'
p261
tp262
a(S'yasina@berkeley.edu'
p263
S'yaalipour'
p264
S'compserv'
p265
S'sp08'
p266
tp267
a(S'judyhoffman@berkeley.edu'
p268
S'jhoffman'
p269
S'indrel'
p270
S'sp08'
p271
tp272
a(S'mtao@berkeley.edu'
p273
S'mtao'
p274
S'tutor'
p275
S'sp08'
p276
tp277
a(S'mattea@berkeley.edu'
p278
S'melestrand-abueg'
p279
S'studrel'
p280
S'sp08'
p281
tp282
a(S'waynefang@berkeley.edu'
p283
S'wfang'
p284
S'act'
p285
S'sp08'
p286
tp287
as.
