(lp0
(Vhzarka
p1
VCS 161
p2
I1
tp3
a(Vhzarka
p4
VCS C281A
p5
I0
tp6
a(Vhzarka
p7
VCS 170
p8
I0
tp9
a(Vhzarka
p10
VCS 174
p11
I1
tp12
a(Vhzarka
p13
VCS 61A
p14
I1
tp15
a(Vhzarka
p16
VMATH 55
p17
I0
tp18
a(Vhzarka
p19
VCS 61C
p20
I1
tp21
a(Vhzarka
p22
VCS 188
p23
I0
tp24
a(Vhzarka
p25
VCS 186
p26
I0
tp27
a(Vmtao
p28
VEE 20N
p29
I0
tp30
a(Vmtao
p31
VEE 40
p32
I0
tp33
a(Vmtao
p34
VCS 61A
p35
I0
tp36
a(Vmtao
p37
VEE 105
p38
I1
tp39
a(Vmtao
p40
VCS 61BL
p41
I1
tp42
a(Vmtao
p43
VCS 3
p44
I0
tp45
a(Vmtao
p46
VEE 120
p47
I1
tp48
a(Vmichelleau
p49
VEE 20N
p50
I0
tp51
a(Vmichelleau
p52
VEE 122
p53
I0
tp54
a(Vmichelleau
p55
VEE 40
p56
I0
tp57
a(Vmichelleau
p58
VCS 61A
p59
I0
tp60
a(Vmichelleau
p61
VCS 61B
p62
I0
tp63
a(Vmichelleau
p64
VCS 162
p65
I0
tp66
a(Vmichelleau
p67
VCS 61C
p68
I0
tp69
a(Vmichelleau
p70
VCS 186
p71
I1
tp72
a(Vmichelleau
p73
VPHYS 7A
p74
I0
tp75
a(Vmichelleau
p76
VPHYS 7B
p77
I0
tp78
a(Vmichelleau
p79
VPHYS 7C
p80
I0
tp81
a(Vmichelleau
p82
VCS 169
p83
I1
tp84
a(Vmichelleau
p85
VCS 160
p86
I1
tp87
a(Vdarren
p88
VCS 186
p89
I0
tp90
a(Vdarren
p91
VCS 188
p92
I0
tp93
a(Vdarren
p94
VCS 162
p95
I0
tp96
a(Vdarren
p97
VCS 61A
p98
I0
tp99
a(Vdarren
p100
VCS 61BL
p101
I0
tp102
a(Vdarren
p103
VCS 61C
p104
I0
tp105
a(Vdarren
p106
VCS 70
p107
I0
tp108
a(Vdarren
p109
VPHYS 7A
p110
I0
tp111
a(Vdarren
p112
VCS 161
p113
I0
tp114
a(Vdarren
p115
VPHYS 7B
p116
I0
tp117
a(Vdarren
p118
VCS 164
p119
I0
tp120
a(Vdarren
p121
VCS 170
p122
I0
tp123
a(Vdarren
p124
VCS 172
p125
I1
tp126
a(Vdarren
p127
VCS 174
p128
I0
tp129
a(Vbrlam
p130
VEE 20N
p131
I0
tp132
a(Vbrlam
p133
VEE 40
p134
I0
tp135
a(Vbrlam
p136
VEE 105
p137
I1
tp138
a(Vbrlam
p139
VCS 61A
p140
I0
tp141
a(Vbrlam
p142
VCS 61C
p143
I0
tp144
a(Vbrlam
p145
VMATH 1A
p146
I0
tp147
a(Vbrlam
p148
VMATH 1B
p149
I0
tp150
a(Vbrlam
p151
VCS 70
p152
I1
tp153
a(Vbrlam
p154
VCS 186
p155
I1
tp156
a(Vbrlam
p157
VPHYS 7A
p158
I0
tp159
a(Vbrlam
p160
VMATH 53
p161
I0
tp162
a(Vbrlam
p163
VPHYS 7B
p164
I0
tp165
a(Vbrlam
p166
VMATH 54
p167
I0
tp168
a(Vbrlam
p169
VCS 150
p170
I0
tp171
a(Vclay
p172
VCS 170
p173
I0
tp174
a(Vclay
p175
VCS 164
p176
I0
tp177
a(Vclay
p178
VCS 162
p179
I0
tp180
a(Vclay
p181
VCS 150
p182
I1
tp183
a(Vclay
p184
VCS 61C
p185
I0
tp186
a(Vclay
p187
VCS 61A
p188
I0
tp189
a(Vclay
p190
VCS 188
p191
I0
tp192
a(Vclay
p193
VCS 186
p194
I0
tp195
a(Vwsandy
p196
VEE C145L
p197
I0
tp198
a(Vwsandy
p199
VCS 61C
p200
I0
tp201
a(Vwsandy
p202
VEE 141
p203
I1
tp204
a(Vwsandy
p205
VEE 140
p206
I1
tp207
a(Vwsandy
p208
VEE 120
p209
I0
tp210
a(Vwsandy
p211
VCS 61B
p212
I0
tp213
a(Vwsandy
p214
VCS 61A
p215
I0
tp216
a(Vwsandy
p217
VEE 105
p218
I0
tp219
a(Vwsandy
p220
VEE 40
p221
I0
tp222
a(Vwsandy
p223
VEE 20N
p224
I0
tp225
a(Vmattea
p226
VEE 20N
p227
I0
tp228
a(Vmattea
p229
VCS 9E
p230
I0
tp231
a(Vmattea
p232
VEE 40
p233
I0
tp234
a(Vmattea
p235
VCS 61A
p236
I0
tp237
a(Vmattea
p238
VCS 61B
p239
I0
tp240
a(Vmattea
p241
VCS 61C
p242
I0
tp243
a(Vmattea
p244
VEE 120
p245
I0
tp246
a(Vmattea
p247
VCS C182
p248
I1
tp249
a(Vmattea
p250
VCS 169
p251
I1
tp252
a(Vmattea
p253
VEE C145L
p254
I0
tp255
a(Vrzheng
p256
VEE 20N
p257
I0
tp258
a(Vrzheng
p259
VCS 184
p260
I0
tp261
a(Vrzheng
p262
VCS 188
p263
I0
tp264
a(Vrzheng
p265
VCS 61A
p266
I0
tp267
a(Vrzheng
p268
VEE 120
p269
I0
tp270
a(Vrzheng
p271
VCS 61B
p272
I0
tp273
a(Vrzheng
p274
VEE 123
p275
I0
tp276
a(Vrzheng
p277
VEE 126
p278
I0
tp279
a(Vrzheng
p280
VCS 162
p281
I0
tp282
a(Vrzheng
p283
VCS 172
p284
I1
tp285
a(Vrzheng
p286
VCS 61C
p287
I0
tp288
a(Vrzheng
p289
VCS 170
p290
I0
tp291
a(Vrzheng
p292
VCS 161
p293
I1
tp294
a(Vjliao
p295
VEE 20N
p296
I0
tp297
a(Vjliao
p298
VEE 40
p299
I0
tp300
a(Vjliao
p301
VCS 61C
p302
I0
tp303
a(Vjliao
p304
VCS 70
p305
I0
tp306
a(Vjhoffman
p307
VEE 20N
p308
I0
tp309
a(Vjhoffman
p310
VCS 61A
p311
I0
tp312
a(Vjhoffman
p313
VCS 61B
p314
I0
tp315
a(Vjhoffman
p316
VMATH 1B
p317
I0
tp318
a(Vjhoffman
p319
VCS 61C
p320
I1
tp321
a(Vjhoffman
p322
VMATH 53
p323
I0
tp324
a(Vjhoffman
p325
VPHYS 7B
p326
I0
tp327
a(Vjhoffman
p328
VMATH 54
p329
I0
tp330
a(Vjhoffman
p331
VEE 40
p332
I1
tp333
a(Vingrid
p334
VEE 20N
p335
I0
tp336
a(Vingrid
p337
VCS 9E
p338
I0
tp339
a(Vingrid
p340
VPHYS 7A
p341
I0
tp342
a(Vingrid
p343
VCS 61A
p344
I0
tp345
a(Vingrid
p346
VCS 61BL
p347
I0
tp348
a(Vingrid
p349
VCS 70
p350
I0
tp351
a(Vingrid
p352
VCS 61C
p353
I1
tp354
a(Vingrid
p355
VMATH 53
p356
I0
tp357
a(Vingrid
p358
VPHYS 7B
p359
I0
tp360
a(Vingrid
p361
VMATH 54
p362
I0
tp363
a(Vingrid
p364
VEE 120
p365
I1
tp366
a(Vingrid
p367
VEE 40
p368
I1
tp369
a(Vsjavdani
p370
VMATH 110
p371
I1
tp372
a(Vsjavdani
p373
VMATH 54
p374
I0
tp375
a(Vsjavdani
p376
VPHYS 7B
p377
I0
tp378
a(Vsjavdani
p379
VMATH 53
p380
I0
tp381
a(Vsjavdani
p382
VPHYS 7A
p383
I0
tp384
a(Vsjavdani
p385
VCS 70
p386
I0
tp387
a(Vsjavdani
p388
VCS 61BL
p389
I0
tp390
a(Vsjavdani
p391
VCS 61A
p392
I0
tp393
a(Vsjavdani
p394
VCS 61C
p395
I1
tp396
a(Vsjavdani
p397
VEE 120
p398
I1
tp399
a(Vsjavdani
p400
VEE 40
p401
I0
tp402
a(Vsjavdani
p403
VEE 20N
p404
I0
tp405
a(Vsuhaas
p406
VCS 9C
p407
I0
tp408
a(Vsuhaas
p409
VCS 170
p410
I0
tp411
a(Vsuhaas
p412
VEE 122
p413
I0
tp414
a(Vsuhaas
p415
VCS 164
p416
I0
tp417
a(Vsuhaas
p418
VCS 162
p419
I0
tp420
a(Vsuhaas
p421
VCS 61C
p422
I0
tp423
a(Vsuhaas
p424
VCS 61B
p425
I0
tp426
a(Vsuhaas
p427
VCS 61A
p428
I0
tp429
a(Vsuhaas
p430
VCS 188
p431
I1
tp432
a(Vsuhaas
p433
VCS 169
p434
I1
tp435
a(Vsuhaas
p436
VEE 40
p437
I0
tp438
a(Vsuhaas
p439
VCS 186
p440
I0
tp441
a(Vsuhaas
p442
VEE 20N
p443
I0
tp444
a(Vaalipoury
p445
VEE 20N
p446
I0
tp447
a(Vaalipoury
p448
VEE 40
p449
I0
tp450
a(Vaalipoury
p451
VEE 105
p452
I0
tp453
a(Vaalipoury
p454
VCS 61B
p455
I0
tp456
a(Vaalipoury
p457
VCS 61BL
p458
I0
tp459
a(Vaalipoury
p460
VCS 61C
p461
I0
tp462
a(Vaalipoury
p463
VEE 120
p464
I0
tp465
a(Vaalipoury
p466
VMATH 54
p467
I0
tp468
a(Vmin
p469
VPHYS H7A
p470
I0
tp471
a(Vmin
p472
VPHYS H7B
p473
I0
tp474
a(Vmin
p475
VEE 20N
p476
I0
tp477
a(Vmin
p478
VEE 40
p479
I0
tp480
a(Vmin
p481
VMATH H185
p482
I1
tp483
a(Vmin
p484
VMATH 250A
p485
I0
tp486
a(Vmin
p487
VCS 61A
p488
I0
tp489
a(Vmin
p490
VCS 61B
p491
I0
tp492
a(Vmin
p493
VCS 61C
p494
I0
tp495
a(Vmin
p496
VCS 70
p497
I0
tp498
a(Vmin
p499
VMATH 53
p500
I0
tp501
a(Vmin
p502
VCS 162
p503
I0
tp504
a(Vmin
p505
VCS 172
p506
I1
tp507
a(Vmin
p508
VMATH 54
p509
I0
tp510
a(Vmin
p511
VCS 170
p512
I0
tp513
a(Vmin
p514
VCS 174
p515
I0
tp516
a(Vmin
p517
VCS 188
p518
I0
tp519
a(Vmin
p520
VMATH H104
p521
I0
tp522
a(Vmin
p523
VMATH H110
p524
I0
tp525
a(Vmin
p526
VMATH H113
p527
I0
tp528
a(Vmin
p529
VPHYS 137A
p530
I0
tp531
a(Vmin
p532
VMATH 142
p533
I1
tp534
a(Vgeorgechen
p535
VEE 120
p536
I0
tp537
a(Vgeorgechen
p538
VCS 61C
p539
I0
tp540
a(Vgeorgechen
p541
VCS 70
p542
I0
tp543
a(Vgeorgechen
p544
VEE 126
p545
I0
tp546
a(Vgeorgechen
p547
VEE 123
p548
I1
tp549
a(Vgeorgechen
p550
VPHYS 7B
p551
I0
tp552
a(Vgeorgechen
p553
VMATH 104
p554
I1
tp555
a(Vgeorgechen
p556
VMATH 54
p557
I0
tp558
a(Vgeorgechen
p559
VCS 188
p560
I0
tp561
a(Vsgowda
p562
VEE 20N
p563
I0
tp564
a(Vsgowda
p565
VEE 40
p566
I0
tp567
a(Vsgowda
p568
VEE 121
p569
I1
tp570
a(Vsgowda
p571
VMATH 1B
p572
I0
tp573
a(Vsgowda
p574
VPHYS 7B
p575
I0
tp576
a(Vsgowda
p577
VCS 61A
p578
I0
tp579
a(Vsgowda
p580
VEE 120
p581
I0
tp582
a(Vsgowda
p583
VCS 61B
p584
I0
tp585
a(Vsgowda
p586
VCS 150
p587
I1
tp588
a(Vsgowda
p589
VEE 126
p590
I0
tp591
a(Vsgowda
p592
VPHYS 7A
p593
I0
tp594
a(Vsgowda
p595
VMATH 53
p596
I0
tp597
a(Vsgowda
p598
VEE 123
p599
I1
tp600
a(Vsgowda
p601
VCS 61C
p602
I0
tp603
a(Vsgowda
p604
VMATH 54
p605
I0
tp606
a(Vmchang
p607
VEE 20N
p608
I0
tp609
a(Vmchang
p610
VEE 40
p611
I0
tp612
a(Vmchang
p613
VEE 105
p614
I0
tp615
a(Vmchang
p616
VCS 61A
p617
I0
tp618
a(Vmchang
p619
VEE 120
p620
I0
tp621
a(Vmchang
p622
VEE 192
p623
I1
tp624
a(Vmchang
p625
VCS 61C
p626
I0
tp627
a(Vmchang
p628
VCS 70
p629
I0
tp630
a(Vmchang
p631
VCS 150
p632
I0
tp633
a(Vmchang
p634
VPHYS 7A
p635
I0
tp636
a(Vmchang
p637
VPHYS 7B
p638
I0
tp639
a(Vmchang
p640
VPHYS 7C
p641
I0
tp642
a(Vmchang
p643
VMATH 110
p644
I1
tp645
a(Vnjoubert
p646
VCS 162
p647
I1
tp648
a(Vnjoubert
p649
VMATH 110
p650
I1
tp651
a(Vnjoubert
p652
VCS 61C
p653
I0
tp654
a(Vnjoubert
p655
VCS 184
p656
I1
tp657
a(Vnjoubert
p658
VEE 120
p659
I0
tp660
a(Vnjoubert
p661
VASTRO 121
p662
I0
tp663
a(Vnjoubert
p664
VCS 61B
p665
I0
tp666
a(Vnjoubert
p667
VCS 61A
p668
I0
tp669
a(Vnjoubert
p670
VEE 40
p671
I0
tp672
a(Vnjoubert
p673
VEE 20N
p674
I0
tp675
a(Vvishay
p676
VEE 121
p677
I1
tp678
a(Vvishay
p679
VEE 123
p680
I1
tp681
a(Vvishay
p682
VEE 120
p683
I0
tp684
a(Vvishay
p685
VEE 105
p686
I1
tp687
a(Vvishay
p688
VEE 126
p689
I0
tp690
a(Vvishay
p691
VCS 70
p692
I0
tp693
a(Vvishay
p694
VCS 61CL
p695
I0
tp696
a(Vvishay
p697
VCS 61C
p698
I0
tp699
a(Vvishay
p700
VCS 61BL
p701
I0
tp702
a(Vvishay
p703
VCS 61B
p704
I0
tp705
a(Vvishay
p706
VCS 61A
p707
I0
tp708
a(Vvishay
p709
VEE 40
p710
I0
tp711
a(Vvishay
p712
VEE 20N
p713
I0
tp714
a(Vackner
p715
VEE 20N
p716
I0
tp717
a(Vackner
p718
VCS 186
p719
I0
tp720
a(Vackner
p721
VCS 188
p722
I0
tp723
a(Vackner
p724
VCS 61A
p725
I0
tp726
a(Vackner
p727
VEE 40
p728
I0
tp729
a(Vackner
p730
VCS 61C
p731
I0
tp732
a(Vackner
p733
VCS 70
p734
I0
tp735
a(Vackner
p736
VPHYS 7A
p737
I0
tp738
a(Vackner
p739
VMATH 53
p740
I0
tp741
a(Vackner
p742
VCS 162
p743
I0
tp744
a(Vackner
p745
VCS 164
p746
I0
tp747
a(Vackner
p748
VMATH 54
p749
I0
tp750
a(Vackner
p751
VCS 170
p752
I0
tp753
a(Vackner
p754
VCS 160
p755
I1
tp756
a(Vjared
p757
VCS 70
p758
I1
tp759
a(Vjared
p760
VCS 61C
p761
I0
tp762
a(Vjared
p763
VCS 61BL
p764
I0
tp765
a(Vjared
p766
VCS 61A
p767
I0
tp768
a(Vjared
p769
VEE 20N
p770
I0
tp771
a(Vzhangz
p772
VEE 40
p773
I0
tp774
a(Vzhangz
p775
VCS 61A
p776
I0
tp777
a(Vzhangz
p778
VCS 61BL
p779
I0
tp780
a(Vzhangz
p781
VCS 61CL
p782
I0
tp783
a(Vzhangz
p784
VMATH 1B
p785
I0
tp786
a(Vzhangz
p787
VPHYS 7A
p788
I0
tp789
a(Vzhangz
p790
VMATH 53
p791
I0
tp792
a(Vzhangz
p793
VPHYS 7B
p794
I0
tp795
a(Vzhangz
p796
VMATH 54
p797
I0
tp798
a(Vbtay
p799
VCS 161
p800
I1
tp801
a(Vbtay
p802
VEE 105
p803
I0
tp804
a(Vbtay
p805
VEE 123
p806
I1
tp807
a(Vbtay
p808
VCS 170
p809
I0
tp810
a(Vbtay
p811
VCS 61C
p812
I0
tp813
a(Vbtay
p814
VCS 162
p815
I0
tp816
a(Vbtay
p817
VE 77
p818
I0
tp819
a(Vbtay
p820
VCS 184
p821
I1
tp822
a(Vbtay
p823
VCS 160
p824
I1
tp825
a(Vbtay
p826
VEE 120
p827
I0
tp828
a(Vbtay
p829
VCS 61B
p830
I0
tp831
a(Vbtay
p832
VPHYS 7A
p833
I0
tp834
a(Vbtay
p835
VEE 40
p836
I0
tp837
a(Vbtay
p838
VCS 61A
p839
I0
tp840
a(Vbtay
p841
VE 45
p842
I0
tp843
a(Vbtay
p844
VPHYS 7B
p845
I0
tp846
a(Vbtay
p847
VPHYS H7C
p848
I0
tp849
a(Vbtay
p850
VCS 188
p851
I0
tp852
a(Vbtay
p853
VCHEM 1B
p854
I0
tp855
a(Vbtay
p856
VEE 20N
p857
I0
tp858
a(Vangela
p859
VEE 20N
p860
I0
tp861
a(Vangela
p862
VEE 40
p863
I0
tp864
a(Vangela
p865
VEE 105
p866
I0
tp867
a(Vangela
p868
VEE 140
p869
I1
tp870
a(Vangela
p871
VCS 150
p872
I0
tp873
a(Vangela
p874
VEE 141
p875
I1
tp876
a(Vangela
p877
VPHYS 7A
p878
I0
tp879
a(Vangela
p880
VMATH 53
p881
I0
tp882
a(Vangela
p883
VPHYS 7B
p884
I0
tp885
a(Vkmowery
p886
VEE 20N
p887
I0
tp888
a(Vkmowery
p889
VCS 188
p890
I0
tp891
a(Vkmowery
p892
VEE 40
p893
I0
tp894
a(Vkmowery
p895
VCS 61A
p896
I0
tp897
a(Vkmowery
p898
VCS 61B
p899
I0
tp900
a(Vkmowery
p901
VCS 61C
p902
I0
tp903
a(Vkmowery
p904
VCS 70
p905
I0
tp906
a(Vkmowery
p907
VCS 162
p908
I0
tp909
a(Vkmowery
p910
VCS 164
p911
I0
tp912
a(Vkmowery
p913
VCS 170
p914
I0
tp915
a(Vkmowery
p916
VCS 172
p917
I1
tp918
a(Vkmowery
p919
VCS 161
p920
I1
tp921
a(Vjtran
p922
VCS 160
p923
I1
tp924
a(Vjtran
p925
VCS 186
p926
I0
tp927
a(Vjtran
p928
VEE 40
p929
I0
tp930
a(Vjtran
p931
VCS 169
p932
I0
tp933
a(Vjtran
p934
VPHYS 7C
p935
I0
tp936
a(Vjtran
p937
VMATH 110
p938
I0
tp939
a(Vjtran
p940
VEE 20N
p941
I0
tp942
a(Vjtran
p943
VCS 61A
p944
I0
tp945
a(Vjtran
p946
VCS 61B
p947
I0
tp948
a(Vjtran
p949
VCS 162
p950
I0
tp951
a(Vjtran
p952
VCS 61C
p953
I0
tp954
a(Vjtran
p955
VCS 150
p956
I0
tp957
a(Vjtran
p958
VPHYS 7A
p959
I0
tp960
a(Vjtran
p961
VMATH 53
p962
I0
tp963
a(Vjtran
p964
VPHYS 7B
p965
I0
tp966
a(Vjtran
p967
VCS 164
p968
I0
tp969
a(Vjtran
p970
VMATH 54
p971
I0
tp972
a(Vjtran
p973
VCS 170
p974
I0
tp975
a(Vjtran
p976
VCS 188
p977
I0
tp978
a(Vjtran
p979
VCS 174
p980
I0
tp981
a(Vjtran
p982
VCS 161
p983
I1
tp984
a(Vjared
p985
VPHYS 7A
p986
I0
tp987
a(Vjared
p988
VPHYS 7B
p989
I0
tp990
a(Vgeorgechen
p991
VCS 61A
p992
I0
tp993
a(Vgeorgechen
p994
VMATH 110
p995
I0
tp996
a(Vgeorgechen
p997
VEE 40
p998
I0
tp999
a(Vgeorgechen
p1000
VEE 20N
p1001
I0
tp1002
a(Vbkim
p1003
VCS 184
p1004
I0
tp1005
a(Vbkim
p1006
VEE 20N
p1007
I0
tp1008
a(Vbkim
p1009
VCS 188
p1010
I0
tp1011
a(Vbkim
p1012
VEE 40
p1013
I0
tp1014
a(Vbkim
p1015
VMATH 110
p1016
I1
tp1017
a(Vbkim
p1018
VCS 61A
p1019
I0
tp1020
a(Vbkim
p1021
VCS 61B
p1022
I0
tp1023
a(Vbkim
p1024
VCS 61C
p1025
I0
tp1026
a(Vbkim
p1027
VCS 70
p1028
I0
tp1029
a(Vbkim
p1030
VCS 186
p1031
I1
tp1032
a(Vbkim
p1033
VMATH 53
p1034
I0
tp1035
a(Vbkim
p1036
VCS 162
p1037
I0
tp1038
a(Vbkim
p1039
VCS 172
p1040
I1
tp1041
a(Vbkim
p1042
VMATH 54
p1043
I0
tp1044
a(Vbkim
p1045
VCS 170
p1046
I0
tp1047
a(Vwayne
p1048
VMATH 54
p1049
I0
tp1050
a(Vwayne
p1051
VPHYS 7B
p1052
I0
tp1053
a(Vwayne
p1054
VMATH 53
p1055
I0
tp1056
a(Vwayne
p1057
VPHYS 7A
p1058
I0
tp1059
a(Vwayne
p1060
VCS 61A
p1061
I0
tp1062
a(Vwayne
p1063
VEE 40
p1064
I0
tp1065
a(Vwayne
p1066
VEE 20N
p1067
I0
tp1068
a(Vjliao
p1069
VPHYS 7A
p1070
I0
tp1071
a(Vjliao
p1072
VMATH 53
p1073
I0
tp1074
a(Vjliao
p1075
VPHYS 7B
p1076
I0
tp1077
a(Vjliao
p1078
VMATH 54
p1079
I0
tp1080
a.