(lp0
(Vhzarka
p1
VCS 161
p2
Vsp08
p3
I01
tp4
a(Vhzarka
p5
VCS C281A
p6
Vsp08
p7
I00
tp8
a(Vhzarka
p9
VCS 170
p10
Vsp08
p11
I00
tp12
a(Vhzarka
p13
VCS 174
p14
Vsp08
p15
I01
tp16
a(Vhzarka
p17
VCS 61A
p18
Vsp08
p19
I01
tp20
a(Vhzarka
p21
VMATH 55
p22
Vsp08
p23
I00
tp24
a(Vhzarka
p25
VCS 61C
p26
Vsp08
p27
I01
tp28
a(Vhzarka
p29
VCS 188
p30
Vsp08
p31
I00
tp32
a(Vhzarka
p33
VCS 186
p34
Vsp08
p35
I00
tp36
a(Vmtao
p37
VEE 20N
p38
Vsp08
p39
I00
tp40
a(Vmtao
p41
VEE 40
p42
Vsp08
p43
I00
tp44
a(Vmtao
p45
VCS 61A
p46
Vsp08
p47
I00
tp48
a(Vmtao
p49
VEE 105
p50
Vsp08
p51
I01
tp52
a(Vmtao
p53
VCS 61BL
p54
Vsp08
p55
I01
tp56
a(Vmtao
p57
VCS 3
p58
Vsp08
p59
I00
tp60
a(Vmtao
p61
VEE 120
p62
Vsp08
p63
I01
tp64
a(Vmichelleau
p65
VEE 20N
p66
Vsp08
p67
I00
tp68
a(Vmichelleau
p69
VEE 122
p70
Vsp08
p71
I00
tp72
a(Vmichelleau
p73
VEE 40
p74
Vsp08
p75
I00
tp76
a(Vmichelleau
p77
VCS 61A
p78
Vsp08
p79
I00
tp80
a(Vmichelleau
p81
VCS 61B
p82
Vsp08
p83
I00
tp84
a(Vmichelleau
p85
VCS 162
p86
Vsp08
p87
I00
tp88
a(Vmichelleau
p89
VCS 61C
p90
Vsp08
p91
I00
tp92
a(Vmichelleau
p93
VCS 186
p94
Vsp08
p95
I01
tp96
a(Vmichelleau
p97
VPHYS 7A
p98
Vsp08
p99
I00
tp100
a(Vmichelleau
p101
VPHYS 7B
p102
Vsp08
p103
I00
tp104
a(Vmichelleau
p105
VPHYS 7C
p106
Vsp08
p107
I00
tp108
a(Vmichelleau
p109
VCS 169
p110
Vsp08
p111
I01
tp112
a(Vmichelleau
p113
VCS 160
p114
Vsp08
p115
I01
tp116
a(Vdarren
p117
VCS 186
p118
Vsp08
p119
I00
tp120
a(Vdarren
p121
VCS 188
p122
Vsp08
p123
I00
tp124
a(Vdarren
p125
VCS 162
p126
Vsp08
p127
I00
tp128
a(Vdarren
p129
VCS 61A
p130
Vsp08
p131
I00
tp132
a(Vdarren
p133
VCS 61BL
p134
Vsp08
p135
I00
tp136
a(Vdarren
p137
VCS 61C
p138
Vsp08
p139
I00
tp140
a(Vdarren
p141
VCS 70
p142
Vsp08
p143
I00
tp144
a(Vdarren
p145
VPHYS 7A
p146
Vsp08
p147
I00
tp148
a(Vdarren
p149
VCS 161
p150
Vsp08
p151
I00
tp152
a(Vdarren
p153
VPHYS 7B
p154
Vsp08
p155
I00
tp156
a(Vdarren
p157
VCS 164
p158
Vsp08
p159
I00
tp160
a(Vdarren
p161
VCS 170
p162
Vsp08
p163
I00
tp164
a(Vdarren
p165
VCS 172
p166
Vsp08
p167
I01
tp168
a(Vdarren
p169
VCS 174
p170
Vsp08
p171
I00
tp172
a(Vbrlam
p173
VEE 20N
p174
Vsp08
p175
I00
tp176
a(Vbrlam
p177
VEE 40
p178
Vsp08
p179
I00
tp180
a(Vbrlam
p181
VEE 105
p182
Vsp08
p183
I01
tp184
a(Vbrlam
p185
VCS 61A
p186
Vsp08
p187
I00
tp188
a(Vbrlam
p189
VCS 61C
p190
Vsp08
p191
I00
tp192
a(Vbrlam
p193
VMATH 1A
p194
Vsp08
p195
I00
tp196
a(Vbrlam
p197
VMATH 1B
p198
Vsp08
p199
I00
tp200
a(Vbrlam
p201
VCS 70
p202
Vsp08
p203
I01
tp204
a(Vbrlam
p205
VCS 186
p206
Vsp08
p207
I01
tp208
a(Vbrlam
p209
VPHYS 7A
p210
Vsp08
p211
I00
tp212
a(Vbrlam
p213
VMATH 53
p214
Vsp08
p215
I00
tp216
a(Vbrlam
p217
VPHYS 7B
p218
Vsp08
p219
I00
tp220
a(Vbrlam
p221
VMATH 54
p222
Vsp08
p223
I00
tp224
a(Vbrlam
p225
VCS 150
p226
Vsp08
p227
I00
tp228
a(Vclay
p229
VCS 170
p230
Vsp08
p231
I00
tp232
a(Vclay
p233
VCS 164
p234
Vsp08
p235
I00
tp236
a(Vclay
p237
VCS 162
p238
Vsp08
p239
I00
tp240
a(Vclay
p241
VCS 150
p242
Vsp08
p243
I01
tp244
a(Vclay
p245
VCS 61C
p246
Vsp08
p247
I00
tp248
a(Vclay
p249
VCS 61A
p250
Vsp08
p251
I00
tp252
a(Vclay
p253
VCS 188
p254
Vsp08
p255
I00
tp256
a(Vclay
p257
VCS 186
p258
Vsp08
p259
I00
tp260
a(Vwsandy
p261
VEE C145L
p262
Vsp08
p263
I00
tp264
a(Vwsandy
p265
VCS 61C
p266
Vsp08
p267
I00
tp268
a(Vwsandy
p269
VEE 141
p270
Vsp08
p271
I01
tp272
a(Vwsandy
p273
VEE 140
p274
Vsp08
p275
I01
tp276
a(Vwsandy
p277
VEE 120
p278
Vsp08
p279
I00
tp280
a(Vwsandy
p281
VCS 61B
p282
Vsp08
p283
I00
tp284
a(Vwsandy
p285
VCS 61A
p286
Vsp08
p287
I00
tp288
a(Vwsandy
p289
VEE 105
p290
Vsp08
p291
I00
tp292
a(Vwsandy
p293
VEE 40
p294
Vsp08
p295
I00
tp296
a(Vwsandy
p297
VEE 20N
p298
Vsp08
p299
I00
tp300
a(Vmattea
p301
VEE 20N
p302
Vsp08
p303
I00
tp304
a(Vmattea
p305
VCS 9E
p306
Vsp08
p307
I00
tp308
a(Vmattea
p309
VEE 40
p310
Vsp08
p311
I00
tp312
a(Vmattea
p313
VCS 61A
p314
Vsp08
p315
I00
tp316
a(Vmattea
p317
VCS 61B
p318
Vsp08
p319
I00
tp320
a(Vmattea
p321
VCS 61C
p322
Vsp08
p323
I00
tp324
a(Vmattea
p325
VEE 120
p326
Vsp08
p327
I00
tp328
a(Vmattea
p329
VCS C182
p330
Vsp08
p331
I01
tp332
a(Vmattea
p333
VCS 169
p334
Vsp08
p335
I01
tp336
a(Vmattea
p337
VEE C145L
p338
Vsp08
p339
I00
tp340
a(Vrzheng
p341
VEE 20N
p342
Vsp08
p343
I00
tp344
a(Vrzheng
p345
VCS 184
p346
Vsp08
p347
I00
tp348
a(Vrzheng
p349
VCS 188
p350
Vsp08
p351
I00
tp352
a(Vrzheng
p353
VCS 61A
p354
Vsp08
p355
I00
tp356
a(Vrzheng
p357
VEE 120
p358
Vsp08
p359
I00
tp360
a(Vrzheng
p361
VCS 61B
p362
Vsp08
p363
I00
tp364
a(Vrzheng
p365
VEE 123
p366
Vsp08
p367
I00
tp368
a(Vrzheng
p369
VEE 126
p370
Vsp08
p371
I00
tp372
a(Vrzheng
p373
VCS 162
p374
Vsp08
p375
I00
tp376
a(Vrzheng
p377
VCS 172
p378
Vsp08
p379
I01
tp380
a(Vrzheng
p381
VCS 61C
p382
Vsp08
p383
I00
tp384
a(Vrzheng
p385
VCS 170
p386
Vsp08
p387
I00
tp388
a(Vrzheng
p389
VCS 161
p390
Vsp08
p391
I01
tp392
a(Vjliao
p393
VEE 20N
p394
Vsp08
p395
I00
tp396
a(Vjliao
p397
VEE 40
p398
Vsp08
p399
I00
tp400
a(Vjliao
p401
VCS 61C
p402
Vsp08
p403
I00
tp404
a(Vjliao
p405
VCS 70
p406
Vsp08
p407
I00
tp408
a(Vjhoffman
p409
VEE 20N
p410
Vsp08
p411
I00
tp412
a(Vjhoffman
p413
VCS 61A
p414
Vsp08
p415
I00
tp416
a(Vjhoffman
p417
VCS 61B
p418
Vsp08
p419
I00
tp420
a(Vjhoffman
p421
VMATH 1B
p422
Vsp08
p423
I00
tp424
a(Vjhoffman
p425
VCS 61C
p426
Vsp08
p427
I01
tp428
a(Vjhoffman
p429
VMATH 53
p430
Vsp08
p431
I00
tp432
a(Vjhoffman
p433
VPHYS 7B
p434
Vsp08
p435
I00
tp436
a(Vjhoffman
p437
VMATH 54
p438
Vsp08
p439
I00
tp440
a(Vjhoffman
p441
VEE 40
p442
Vsp08
p443
I01
tp444
a(Vingrid
p445
VEE 20N
p446
Vsp08
p447
I00
tp448
a(Vingrid
p449
VCS 9E
p450
Vsp08
p451
I00
tp452
a(Vingrid
p453
VPHYS 7A
p454
Vsp08
p455
I00
tp456
a(Vingrid
p457
VCS 61A
p458
Vsp08
p459
I00
tp460
a(Vingrid
p461
VCS 61BL
p462
Vsp08
p463
I00
tp464
a(Vingrid
p465
VCS 70
p466
Vsp08
p467
I00
tp468
a(Vingrid
p469
VCS 61C
p470
Vsp08
p471
I01
tp472
a(Vingrid
p473
VMATH 53
p474
Vsp08
p475
I00
tp476
a(Vingrid
p477
VPHYS 7B
p478
Vsp08
p479
I00
tp480
a(Vingrid
p481
VMATH 54
p482
Vsp08
p483
I00
tp484
a(Vingrid
p485
VEE 120
p486
Vsp08
p487
I01
tp488
a(Vingrid
p489
VEE 40
p490
Vsp08
p491
I01
tp492
a(Vsjavdani
p493
VMATH 110
p494
Vsp08
p495
I01
tp496
a(Vsjavdani
p497
VMATH 54
p498
Vsp08
p499
I00
tp500
a(Vsjavdani
p501
VPHYS 7B
p502
Vsp08
p503
I00
tp504
a(Vsjavdani
p505
VMATH 53
p506
Vsp08
p507
I00
tp508
a(Vsjavdani
p509
VPHYS 7A
p510
Vsp08
p511
I00
tp512
a(Vsjavdani
p513
VCS 70
p514
Vsp08
p515
I00
tp516
a(Vsjavdani
p517
VCS 61BL
p518
Vsp08
p519
I00
tp520
a(Vsjavdani
p521
VCS 61A
p522
Vsp08
p523
I00
tp524
a(Vsjavdani
p525
VCS 61C
p526
Vsp08
p527
I01
tp528
a(Vsjavdani
p529
VEE 120
p530
Vsp08
p531
I01
tp532
a(Vsjavdani
p533
VEE 40
p534
Vsp08
p535
I00
tp536
a(Vsjavdani
p537
VEE 20N
p538
Vsp08
p539
I00
tp540
a(Vsuhaas
p541
VCS 9C
p542
Vsp08
p543
I00
tp544
a(Vsuhaas
p545
VCS 170
p546
Vsp08
p547
I00
tp548
a(Vsuhaas
p549
VEE 122
p550
Vsp08
p551
I00
tp552
a(Vsuhaas
p553
VCS 164
p554
Vsp08
p555
I00
tp556
a(Vsuhaas
p557
VCS 162
p558
Vsp08
p559
I00
tp560
a(Vsuhaas
p561
VCS 61C
p562
Vsp08
p563
I00
tp564
a(Vsuhaas
p565
VCS 61B
p566
Vsp08
p567
I00
tp568
a(Vsuhaas
p569
VCS 61A
p570
Vsp08
p571
I00
tp572
a(Vsuhaas
p573
VCS 188
p574
Vsp08
p575
I01
tp576
a(Vsuhaas
p577
VCS 169
p578
Vsp08
p579
I01
tp580
a(Vsuhaas
p581
VEE 40
p582
Vsp08
p583
I00
tp584
a(Vsuhaas
p585
VCS 186
p586
Vsp08
p587
I00
tp588
a(Vsuhaas
p589
VEE 20N
p590
Vsp08
p591
I00
tp592
a(Vaalipoury
p593
VEE 20N
p594
Vsp08
p595
I00
tp596
a(Vaalipoury
p597
VEE 40
p598
Vsp08
p599
I00
tp600
a(Vaalipoury
p601
VEE 105
p602
Vsp08
p603
I00
tp604
a(Vaalipoury
p605
VCS 61B
p606
Vsp08
p607
I00
tp608
a(Vaalipoury
p609
VCS 61BL
p610
Vsp08
p611
I00
tp612
a(Vaalipoury
p613
VCS 61C
p614
Vsp08
p615
I00
tp616
a(Vaalipoury
p617
VEE 120
p618
Vsp08
p619
I00
tp620
a(Vaalipoury
p621
VMATH 54
p622
Vsp08
p623
I00
tp624
a(Vmin
p625
VPHYS H7A
p626
Vsp08
p627
I00
tp628
a(Vmin
p629
VPHYS H7B
p630
Vsp08
p631
I00
tp632
a(Vmin
p633
VEE 20N
p634
Vsp08
p635
I00
tp636
a(Vmin
p637
VEE 40
p638
Vsp08
p639
I00
tp640
a(Vmin
p641
VMATH H185
p642
Vsp08
p643
I01
tp644
a(Vmin
p645
VMATH 250A
p646
Vsp08
p647
I00
tp648
a(Vmin
p649
VCS 61A
p650
Vsp08
p651
I00
tp652
a(Vmin
p653
VCS 61B
p654
Vsp08
p655
I00
tp656
a(Vmin
p657
VCS 61C
p658
Vsp08
p659
I00
tp660
a(Vmin
p661
VCS 70
p662
Vsp08
p663
I00
tp664
a(Vmin
p665
VMATH 53
p666
Vsp08
p667
I00
tp668
a(Vmin
p669
VCS 162
p670
Vsp08
p671
I00
tp672
a(Vmin
p673
VCS 172
p674
Vsp08
p675
I01
tp676
a(Vmin
p677
VMATH 54
p678
Vsp08
p679
I00
tp680
a(Vmin
p681
VCS 170
p682
Vsp08
p683
I00
tp684
a(Vmin
p685
VCS 174
p686
Vsp08
p687
I00
tp688
a(Vmin
p689
VCS 188
p690
Vsp08
p691
I00
tp692
a(Vmin
p693
VMATH H104
p694
Vsp08
p695
I00
tp696
a(Vmin
p697
VMATH H110
p698
Vsp08
p699
I00
tp700
a(Vmin
p701
VMATH H113
p702
Vsp08
p703
I00
tp704
a(Vmin
p705
VPHYS 137A
p706
Vsp08
p707
I00
tp708
a(Vmin
p709
VMATH 142
p710
Vsp08
p711
I01
tp712
a(Vgeorgechen
p713
VEE 120
p714
Vsp08
p715
I00
tp716
a(Vgeorgechen
p717
VCS 61C
p718
Vsp08
p719
I00
tp720
a(Vgeorgechen
p721
VCS 70
p722
Vsp08
p723
I00
tp724
a(Vgeorgechen
p725
VEE 126
p726
Vsp08
p727
I00
tp728
a(Vgeorgechen
p729
VEE 123
p730
Vsp08
p731
I01
tp732
a(Vgeorgechen
p733
VPHYS 7B
p734
Vsp08
p735
I00
tp736
a(Vgeorgechen
p737
VMATH 104
p738
Vsp08
p739
I01
tp740
a(Vgeorgechen
p741
VMATH 54
p742
Vsp08
p743
I00
tp744
a(Vgeorgechen
p745
VCS 188
p746
Vsp08
p747
I00
tp748
a(Vsgowda
p749
VEE 20N
p750
Vsp08
p751
I00
tp752
a(Vsgowda
p753
VEE 40
p754
Vsp08
p755
I00
tp756
a(Vsgowda
p757
VEE 121
p758
Vsp08
p759
I01
tp760
a(Vsgowda
p761
VMATH 1B
p762
Vsp08
p763
I00
tp764
a(Vsgowda
p765
VPHYS 7B
p766
Vsp08
p767
I00
tp768
a(Vsgowda
p769
VCS 61A
p770
Vsp08
p771
I00
tp772
a(Vsgowda
p773
VEE 120
p774
Vsp08
p775
I00
tp776
a(Vsgowda
p777
VCS 61B
p778
Vsp08
p779
I00
tp780
a(Vsgowda
p781
VCS 150
p782
Vsp08
p783
I01
tp784
a(Vsgowda
p785
VEE 126
p786
Vsp08
p787
I00
tp788
a(Vsgowda
p789
VPHYS 7A
p790
Vsp08
p791
I00
tp792
a(Vsgowda
p793
VMATH 53
p794
Vsp08
p795
I00
tp796
a(Vsgowda
p797
VEE 123
p798
Vsp08
p799
I01
tp800
a(Vsgowda
p801
VCS 61C
p802
Vsp08
p803
I00
tp804
a(Vsgowda
p805
VMATH 54
p806
Vsp08
p807
I00
tp808
a(Vmchang
p809
VEE 20N
p810
Vsp08
p811
I00
tp812
a(Vmchang
p813
VEE 40
p814
Vsp08
p815
I00
tp816
a(Vmchang
p817
VEE 105
p818
Vsp08
p819
I00
tp820
a(Vmchang
p821
VCS 61A
p822
Vsp08
p823
I00
tp824
a(Vmchang
p825
VEE 120
p826
Vsp08
p827
I00
tp828
a(Vmchang
p829
VEE 192
p830
Vsp08
p831
I01
tp832
a(Vmchang
p833
VCS 61C
p834
Vsp08
p835
I00
tp836
a(Vmchang
p837
VCS 70
p838
Vsp08
p839
I00
tp840
a(Vmchang
p841
VCS 150
p842
Vsp08
p843
I00
tp844
a(Vmchang
p845
VPHYS 7A
p846
Vsp08
p847
I00
tp848
a(Vmchang
p849
VPHYS 7B
p850
Vsp08
p851
I00
tp852
a(Vmchang
p853
VPHYS 7C
p854
Vsp08
p855
I00
tp856
a(Vmchang
p857
VMATH 110
p858
Vsp08
p859
I01
tp860
a(Vnjoubert
p861
VCS 162
p862
Vsp08
p863
I01
tp864
a(Vnjoubert
p865
VMATH 110
p866
Vsp08
p867
I01
tp868
a(Vnjoubert
p869
VCS 61C
p870
Vsp08
p871
I00
tp872
a(Vnjoubert
p873
VCS 184
p874
Vsp08
p875
I01
tp876
a(Vnjoubert
p877
VEE 120
p878
Vsp08
p879
I00
tp880
a(Vnjoubert
p881
VASTRO 121
p882
Vsp08
p883
I00
tp884
a(Vnjoubert
p885
VCS 61B
p886
Vsp08
p887
I00
tp888
a(Vnjoubert
p889
VCS 61A
p890
Vsp08
p891
I00
tp892
a(Vnjoubert
p893
VEE 40
p894
Vsp08
p895
I00
tp896
a(Vnjoubert
p897
VEE 20N
p898
Vsp08
p899
I00
tp900
a(Vvishay
p901
VEE 121
p902
Vsp08
p903
I01
tp904
a(Vvishay
p905
VEE 123
p906
Vsp08
p907
I01
tp908
a(Vvishay
p909
VEE 120
p910
Vsp08
p911
I00
tp912
a(Vvishay
p913
VEE 105
p914
Vsp08
p915
I01
tp916
a(Vvishay
p917
VEE 126
p918
Vsp08
p919
I00
tp920
a(Vvishay
p921
VCS 70
p922
Vsp08
p923
I00
tp924
a(Vvishay
p925
VCS 61CL
p926
Vsp08
p927
I00
tp928
a(Vvishay
p929
VCS 61C
p930
Vsp08
p931
I00
tp932
a(Vvishay
p933
VCS 61BL
p934
Vsp08
p935
I00
tp936
a(Vvishay
p937
VCS 61B
p938
Vsp08
p939
I00
tp940
a(Vvishay
p941
VCS 61A
p942
Vsp08
p943
I00
tp944
a(Vvishay
p945
VEE 40
p946
Vsp08
p947
I00
tp948
a(Vvishay
p949
VEE 20N
p950
Vsp08
p951
I00
tp952
a(Vackner
p953
VEE 20N
p954
Vsp08
p955
I00
tp956
a(Vackner
p957
VCS 186
p958
Vsp08
p959
I00
tp960
a(Vackner
p961
VCS 188
p962
Vsp08
p963
I00
tp964
a(Vackner
p965
VCS 61A
p966
Vsp08
p967
I00
tp968
a(Vackner
p969
VEE 40
p970
Vsp08
p971
I00
tp972
a(Vackner
p973
VCS 61C
p974
Vsp08
p975
I00
tp976
a(Vackner
p977
VCS 70
p978
Vsp08
p979
I00
tp980
a(Vackner
p981
VPHYS 7A
p982
Vsp08
p983
I00
tp984
a(Vackner
p985
VMATH 53
p986
Vsp08
p987
I00
tp988
a(Vackner
p989
VCS 162
p990
Vsp08
p991
I00
tp992
a(Vackner
p993
VCS 164
p994
Vsp08
p995
I00
tp996
a(Vackner
p997
VMATH 54
p998
Vsp08
p999
I00
tp1000
a(Vackner
p1001
VCS 170
p1002
Vsp08
p1003
I00
tp1004
a(Vackner
p1005
VCS 160
p1006
Vsp08
p1007
I01
tp1008
a(Vjared
p1009
VCS 70
p1010
Vsp08
p1011
I01
tp1012
a(Vjared
p1013
VCS 61C
p1014
Vsp08
p1015
I00
tp1016
a(Vjared
p1017
VCS 61BL
p1018
Vsp08
p1019
I00
tp1020
a(Vjared
p1021
VCS 61A
p1022
Vsp08
p1023
I00
tp1024
a(Vjared
p1025
VEE 20N
p1026
Vsp08
p1027
I00
tp1028
a(Vzhangz
p1029
VEE 40
p1030
Vsp08
p1031
I00
tp1032
a(Vzhangz
p1033
VCS 61A
p1034
Vsp08
p1035
I00
tp1036
a(Vzhangz
p1037
VCS 61BL
p1038
Vsp08
p1039
I00
tp1040
a(Vzhangz
p1041
VCS 61CL
p1042
Vsp08
p1043
I00
tp1044
a(Vzhangz
p1045
VMATH 1B
p1046
Vsp08
p1047
I00
tp1048
a(Vzhangz
p1049
VPHYS 7A
p1050
Vsp08
p1051
I00
tp1052
a(Vzhangz
p1053
VMATH 53
p1054
Vsp08
p1055
I00
tp1056
a(Vzhangz
p1057
VPHYS 7B
p1058
Vsp08
p1059
I00
tp1060
a(Vzhangz
p1061
VMATH 54
p1062
Vsp08
p1063
I00
tp1064
a(Vbtay
p1065
VCS 161
p1066
Vsp08
p1067
I01
tp1068
a(Vbtay
p1069
VEE 105
p1070
Vsp08
p1071
I00
tp1072
a(Vbtay
p1073
VEE 123
p1074
Vsp08
p1075
I01
tp1076
a(Vbtay
p1077
VCS 170
p1078
Vsp08
p1079
I00
tp1080
a(Vbtay
p1081
VCS 61C
p1082
Vsp08
p1083
I00
tp1084
a(Vbtay
p1085
VCS 162
p1086
Vsp08
p1087
I00
tp1088
a(Vbtay
p1089
VE 77
p1090
Vsp08
p1091
I00
tp1092
a(Vbtay
p1093
VCS 184
p1094
Vsp08
p1095
I01
tp1096
a(Vbtay
p1097
VCS 160
p1098
Vsp08
p1099
I01
tp1100
a(Vbtay
p1101
VEE 120
p1102
Vsp08
p1103
I00
tp1104
a(Vbtay
p1105
VCS 61B
p1106
Vsp08
p1107
I00
tp1108
a(Vbtay
p1109
VPHYS 7A
p1110
Vsp08
p1111
I00
tp1112
a(Vbtay
p1113
VEE 40
p1114
Vsp08
p1115
I00
tp1116
a(Vbtay
p1117
VCS 61A
p1118
Vsp08
p1119
I00
tp1120
a(Vbtay
p1121
VE 45
p1122
Vsp08
p1123
I00
tp1124
a(Vbtay
p1125
VPHYS 7B
p1126
Vsp08
p1127
I00
tp1128
a(Vbtay
p1129
VPHYS H7C
p1130
Vsp08
p1131
I00
tp1132
a(Vbtay
p1133
VCS 188
p1134
Vsp08
p1135
I00
tp1136
a(Vbtay
p1137
VCHEM 1B
p1138
Vsp08
p1139
I00
tp1140
a(Vbtay
p1141
VEE 20N
p1142
Vsp08
p1143
I00
tp1144
a(Vangela
p1145
VEE 20N
p1146
Vsp08
p1147
I00
tp1148
a(Vangela
p1149
VEE 40
p1150
Vsp08
p1151
I00
tp1152
a(Vangela
p1153
VEE 105
p1154
Vsp08
p1155
I00
tp1156
a(Vangela
p1157
VEE 140
p1158
Vsp08
p1159
I01
tp1160
a(Vangela
p1161
VCS 150
p1162
Vsp08
p1163
I00
tp1164
a(Vangela
p1165
VEE 141
p1166
Vsp08
p1167
I01
tp1168
a(Vangela
p1169
VPHYS 7A
p1170
Vsp08
p1171
I00
tp1172
a(Vangela
p1173
VMATH 53
p1174
Vsp08
p1175
I00
tp1176
a(Vangela
p1177
VPHYS 7B
p1178
Vsp08
p1179
I00
tp1180
a(Vkmowery
p1181
VEE 20N
p1182
Vsp08
p1183
I00
tp1184
a(Vkmowery
p1185
VCS 188
p1186
Vsp08
p1187
I00
tp1188
a(Vkmowery
p1189
VEE 40
p1190
Vsp08
p1191
I00
tp1192
a(Vkmowery
p1193
VCS 61A
p1194
Vsp08
p1195
I00
tp1196
a(Vkmowery
p1197
VCS 61B
p1198
Vsp08
p1199
I00
tp1200
a(Vkmowery
p1201
VCS 61C
p1202
Vsp08
p1203
I00
tp1204
a(Vkmowery
p1205
VCS 70
p1206
Vsp08
p1207
I00
tp1208
a(Vkmowery
p1209
VCS 162
p1210
Vsp08
p1211
I00
tp1212
a(Vkmowery
p1213
VCS 164
p1214
Vsp08
p1215
I00
tp1216
a(Vkmowery
p1217
VCS 170
p1218
Vsp08
p1219
I00
tp1220
a(Vkmowery
p1221
VCS 172
p1222
Vsp08
p1223
I01
tp1224
a(Vkmowery
p1225
VCS 161
p1226
Vsp08
p1227
I01
tp1228
a(Vjtran
p1229
VCS 160
p1230
Vsp08
p1231
I01
tp1232
a(Vjtran
p1233
VCS 186
p1234
Vsp08
p1235
I00
tp1236
a(Vjtran
p1237
VEE 40
p1238
Vsp08
p1239
I00
tp1240
a(Vjtran
p1241
VCS 169
p1242
Vsp08
p1243
I00
tp1244
a(Vjtran
p1245
VPHYS 7C
p1246
Vsp08
p1247
I00
tp1248
a(Vjtran
p1249
VMATH 110
p1250
Vsp08
p1251
I00
tp1252
a(Vjtran
p1253
VEE 20N
p1254
Vsp08
p1255
I00
tp1256
a(Vjtran
p1257
VCS 61A
p1258
Vsp08
p1259
I00
tp1260
a(Vjtran
p1261
VCS 61B
p1262
Vsp08
p1263
I00
tp1264
a(Vjtran
p1265
VCS 162
p1266
Vsp08
p1267
I00
tp1268
a(Vjtran
p1269
VCS 61C
p1270
Vsp08
p1271
I00
tp1272
a(Vjtran
p1273
VCS 150
p1274
Vsp08
p1275
I00
tp1276
a(Vjtran
p1277
VPHYS 7A
p1278
Vsp08
p1279
I00
tp1280
a(Vjtran
p1281
VMATH 53
p1282
Vsp08
p1283
I00
tp1284
a(Vjtran
p1285
VPHYS 7B
p1286
Vsp08
p1287
I00
tp1288
a(Vjtran
p1289
VCS 164
p1290
Vsp08
p1291
I00
tp1292
a(Vjtran
p1293
VMATH 54
p1294
Vsp08
p1295
I00
tp1296
a(Vjtran
p1297
VCS 170
p1298
Vsp08
p1299
I00
tp1300
a(Vjtran
p1301
VCS 188
p1302
Vsp08
p1303
I00
tp1304
a(Vjtran
p1305
VCS 174
p1306
Vsp08
p1307
I00
tp1308
a(Vjtran
p1309
VCS 161
p1310
Vsp08
p1311
I01
tp1312
a(Vjared
p1313
VPHYS 7A
p1314
Vsp08
p1315
I00
tp1316
a(Vjared
p1317
VPHYS 7B
p1318
Vsp08
p1319
I00
tp1320
a(Vgeorgechen
p1321
VCS 61A
p1322
Vsp08
p1323
I00
tp1324
a(Vgeorgechen
p1325
VMATH 110
p1326
Vsp08
p1327
I00
tp1328
a(Vgeorgechen
p1329
VEE 40
p1330
Vsp08
p1331
I00
tp1332
a(Vgeorgechen
p1333
VEE 20N
p1334
Vsp08
p1335
I00
tp1336
a(Vbkim
p1337
VCS 184
p1338
Vsp08
p1339
I00
tp1340
a(Vbkim
p1341
VEE 20N
p1342
Vsp08
p1343
I00
tp1344
a(Vbkim
p1345
VCS 188
p1346
Vsp08
p1347
I00
tp1348
a(Vbkim
p1349
VEE 40
p1350
Vsp08
p1351
I00
tp1352
a(Vbkim
p1353
VMATH 110
p1354
Vsp08
p1355
I01
tp1356
a(Vbkim
p1357
VCS 61A
p1358
Vsp08
p1359
I00
tp1360
a(Vbkim
p1361
VCS 61B
p1362
Vsp08
p1363
I00
tp1364
a(Vbkim
p1365
VCS 61C
p1366
Vsp08
p1367
I00
tp1368
a(Vbkim
p1369
VCS 70
p1370
Vsp08
p1371
I00
tp1372
a(Vbkim
p1373
VCS 186
p1374
Vsp08
p1375
I01
tp1376
a(Vbkim
p1377
VMATH 53
p1378
Vsp08
p1379
I00
tp1380
a(Vbkim
p1381
VCS 162
p1382
Vsp08
p1383
I00
tp1384
a(Vbkim
p1385
VCS 172
p1386
Vsp08
p1387
I01
tp1388
a(Vbkim
p1389
VMATH 54
p1390
Vsp08
p1391
I00
tp1392
a(Vbkim
p1393
VCS 170
p1394
Vsp08
p1395
I00
tp1396
a(Vwayne
p1397
VMATH 54
p1398
Vsp08
p1399
I00
tp1400
a(Vwayne
p1401
VPHYS 7B
p1402
Vsp08
p1403
I00
tp1404
a(Vwayne
p1405
VMATH 53
p1406
Vsp08
p1407
I00
tp1408
a(Vwayne
p1409
VPHYS 7A
p1410
Vsp08
p1411
I00
tp1412
a(Vwayne
p1413
VCS 61A
p1414
Vsp08
p1415
I00
tp1416
a(Vwayne
p1417
VEE 40
p1418
Vsp08
p1419
I00
tp1420
a(Vwayne
p1421
VEE 20N
p1422
Vsp08
p1423
I00
tp1424
a(Vjliao
p1425
VPHYS 7A
p1426
Vsp08
p1427
I00
tp1428
a(Vjliao
p1429
VMATH 53
p1430
Vsp08
p1431
I00
tp1432
a(Vjliao
p1433
VPHYS 7B
p1434
Vsp08
p1435
I00
tp1436
a(Vjliao
p1437
VMATH 54
p1438
Vsp08
p1439
I00
tp1440
a(Varjun
p1441
VEE 20N
p1442
Vfa08
p1443
I00
tp1444
a(Varjun
p1445
VEE 40
p1446
Vfa08
p1447
I00
tp1448
a(Varjun
p1449
VEE 100
p1450
Vfa08
p1451
I00
tp1452
a(Varjun
p1453
VEE 120
p1454
Vfa08
p1455
I00
tp1456
a(Varjun
p1457
VEE 121
p1458
Vfa08
p1459
I00
tp1460
a(Varjun
p1461
VMATH 55
p1462
Vfa08
p1463
I00
tp1464
a(Varjun
p1465
VEE 123
p1466
Vfa08
p1467
I00
tp1468
a(Varjun
p1469
VCS 61A
p1470
Vfa08
p1471
I00
tp1472
a(Varjun
p1473
VCS 61C
p1474
Vfa08
p1475
I00
tp1476
a(Varjun
p1477
VMATH 110
p1478
Vfa08
p1479
I01
tp1480
a(Varjun
p1481
VCS 150
p1482
Vfa08
p1483
I00
tp1484
a(Varjun
p1485
VMATH 54
p1486
Vfa08
p1487
I00
tp1488
a(Vbkim
p1489
VMATH 110
p1490
Vfa08
p1491
I00
tp1492
a(Vbkim
p1493
VCS 162
p1494
Vfa08
p1495
I00
tp1496
a(Vbkim
p1497
VEE 40
p1498
Vfa08
p1499
I00
tp1500
a(Vbkim
p1501
VCS 170
p1502
Vfa08
p1503
I00
tp1504
a(Vbkim
p1505
VCS 172
p1506
Vfa08
p1507
I00
tp1508
a(Vbkim
p1509
VCS 184
p1510
Vfa08
p1511
I00
tp1512
a(Vbkim
p1513
VCS 186
p1514
Vfa08
p1515
I00
tp1516
a(Vbkim
p1517
VCS 188
p1518
Vfa08
p1519
I00
tp1520
a(Vbkim
p1521
VMATH 53
p1522
Vfa08
p1523
I00
tp1524
a(Vbkim
p1525
VCS 61A
p1526
Vfa08
p1527
I00
tp1528
a(Vbkim
p1529
VCS 61B
p1530
Vfa08
p1531
I00
tp1532
a(Vbkim
p1533
VCS 61C
p1534
Vfa08
p1535
I00
tp1536
a(Vbkim
p1537
VCS 70
p1538
Vfa08
p1539
I00
tp1540
a(Vbkim
p1541
VMATH 54
p1542
Vfa08
p1543
I00
tp1544
a(Vkylim
p1545
VEE 40
p1546
Vfa08
p1547
I00
tp1548
a(Vkylim
p1549
VCS 184
p1550
Vfa08
p1551
I01
tp1552
a(Vkylim
p1553
VMATH 54
p1554
Vfa08
p1555
I00
tp1556
a(Vkylim
p1557
VCS 61A
p1558
Vfa08
p1559
I00
tp1560
a(Vkylim
p1561
VCS 61BL
p1562
Vfa08
p1563
I00
tp1564
a(Vkylim
p1565
VEE 20N
p1566
Vfa08
p1567
I01
tp1568
a(Vkylim
p1569
VCS 70
p1570
Vfa08
p1571
I01
tp1572
a(Vdavidzeng
p1573
VEE 40
p1574
Vfa08
p1575
I00
tp1576
a(Vdavidzeng
p1577
VCS 186
p1578
Vfa08
p1579
I01
tp1580
a(Vdavidzeng
p1581
VCS 188
p1582
Vfa08
p1583
I00
tp1584
a(Vdavidzeng
p1585
VCS 3L
p1586
Vfa08
p1587
I00
tp1588
a(Vdavidzeng
p1589
VCS 61A
p1590
Vfa08
p1591
I00
tp1592
a(Vdavidzeng
p1593
VCS 61B
p1594
Vfa08
p1595
I00
tp1596
a(Vdavidzeng
p1597
VCS 161
p1598
Vfa08
p1599
I01
tp1600
a(Vdavidzeng
p1601
VCS 61C
p1602
Vfa08
p1603
I00
tp1604
a(Vdavidzeng
p1605
VCS 70
p1606
Vfa08
p1607
I00
tp1608
a(Vbrandon
p1609
VEE 20N
p1610
Vfa08
p1611
I00
tp1612
a(Vbrandon
p1613
VEE 40
p1614
Vfa08
p1615
I00
tp1616
a(Vbrandon
p1617
VMATH 1B
p1618
Vfa08
p1619
I00
tp1620
a(Vbrandon
p1621
VMATH 54
p1622
Vfa08
p1623
I00
tp1624
a(Vbrandon
p1625
VMATH 53
p1626
Vfa08
p1627
I00
tp1628
a(Vbrandon
p1629
VCS 162
p1630
Vfa08
p1631
I01
tp1632
a(Vbrandon
p1633
VCS 61A
p1634
Vfa08
p1635
I00
tp1636
a(Vbrandon
p1637
VCS 61BL
p1638
Vfa08
p1639
I00
tp1640
a(Vbrandon
p1641
VEE 120
p1642
Vfa08
p1643
I01
tp1644
a(Vbrandon
p1645
VPHYS 7B
p1646
Vfa08
p1647
I00
tp1648
a(Vbrandon
p1649
VPHYS 7A
p1650
Vfa08
p1651
I00
tp1652
a(Vbrandon
p1653
VPHYS 7C
p1654
Vfa08
p1655
I00
tp1656
a(Vbrandon
p1657
VCS 70
p1658
Vfa08
p1659
I01
tp1660
a(Vzhangz
p1661
VEE 40
p1662
Vfa08
p1663
I00
tp1664
a(Vzhangz
p1665
VMATH 1B
p1666
Vfa08
p1667
I00
tp1668
a(Vzhangz
p1669
VMATH 53
p1670
Vfa08
p1671
I00
tp1672
a(Vzhangz
p1673
VCS 61A
p1674
Vfa08
p1675
I00
tp1676
a(Vzhangz
p1677
VCS 61BL
p1678
Vfa08
p1679
I00
tp1680
a(Vzhangz
p1681
VCS 61CL
p1682
Vfa08
p1683
I00
tp1684
a(Vzhangz
p1685
VPHYS 7A
p1686
Vfa08
p1687
I00
tp1688
a(Vzhangz
p1689
VPHYS 7B
p1690
Vfa08
p1691
I00
tp1692
a(Vzhangz
p1693
VCS 70
p1694
Vfa08
p1695
I00
tp1696
a(Vzhangz
p1697
VMATH 54
p1698
Vfa08
p1699
I00
tp1700
a(Vclay
p1701
VCS 161
p1702
Vfa08
p1703
I00
tp1704
a(Vclay
p1705
VCS 162
p1706
Vfa08
p1707
I00
tp1708
a(Vclay
p1709
VCS 164
p1710
Vfa08
p1711
I00
tp1712
a(Vclay
p1713
VCS 170
p1714
Vfa08
p1715
I00
tp1716
a(Vclay
p1717
VCS 186
p1718
Vfa08
p1719
I00
tp1720
a(Vclay
p1721
VCS 188
p1722
Vfa08
p1723
I00
tp1724
a(Vclay
p1725
VEE 126
p1726
Vfa08
p1727
I01
tp1728
a(Vclay
p1729
VCS 61A
p1730
Vfa08
p1731
I00
tp1732
a(Vclay
p1733
VCS 61C
p1734
Vfa08
p1735
I00
tp1736
a(Vclay
p1737
VCS C191
p1738
Vfa08
p1739
I01
tp1740
a(Vclay
p1741
VCS 150
p1742
Vfa08
p1743
I00
tp1744
a(Vgeorgechen
p1745
VEE 123
p1746
Vfa08
p1747
I00
tp1748
a(Vgeorgechen
p1749
VEE 20N
p1750
Vfa08
p1751
I00
tp1752
a(Vgeorgechen
p1753
VEE 126
p1754
Vfa08
p1755
I00
tp1756
a(Vgeorgechen
p1757
VEE 120
p1758
Vfa08
p1759
I00
tp1760
a(Vgkchou
p1761
VEE 20N
p1762
Vfa08
p1763
I00
tp1764
a(Vgkchou
p1765
VCS 188
p1766
Vfa08
p1767
I01
tp1768
a(Vgkchou
p1769
VCS 3L
p1770
Vfa08
p1771
I00
tp1772
a(Vgkchou
p1773
VEE 40
p1774
Vfa08
p1775
I01
tp1776
a(Vgkchou
p1777
VCS 61C
p1778
Vfa08
p1779
I00
tp1780
a(Vgkchou
p1781
VCS 70
p1782
Vfa08
p1783
I01
tp1784
a(Vwsandy
p1785
VEE C145L
p1786
Vfa08
p1787
I00
tp1788
a(Vwsandy
p1789
VEE 20N
p1790
Vfa08
p1791
I00
tp1792
a(Vwsandy
p1793
VEE 40
p1794
Vfa08
p1795
I00
tp1796
a(Vwsandy
p1797
VEE 130
p1798
Vfa08
p1799
I01
tp1800
a(Vwsandy
p1801
VEE 105
p1802
Vfa08
p1803
I00
tp1804
a(Vwsandy
p1805
VEE 120
p1806
Vfa08
p1807
I00
tp1808
a(Vwsandy
p1809
VCS 61A
p1810
Vfa08
p1811
I00
tp1812
a(Vwsandy
p1813
VCS 61B
p1814
Vfa08
p1815
I00
tp1816
a(Vwsandy
p1817
VCS 61C
p1818
Vfa08
p1819
I00
tp1820
a(Vwsandy
p1821
VEE 140
p1822
Vfa08
p1823
I00
tp1824
a(Vwsandy
p1825
VEE 141
p1826
Vfa08
p1827
I00
tp1828
a(Vwsandy
p1829
VEE 143
p1830
Vfa08
p1831
I01
tp1832
a(Vmtao
p1833
VEE 20N
p1834
Vfa08
p1835
I00
tp1836
a(Vmtao
p1837
VEE 40
p1838
Vfa08
p1839
I00
tp1840
a(Vmtao
p1841
VEE 105
p1842
Vfa08
p1843
I00
tp1844
a(Vmtao
p1845
VCS 3
p1846
Vfa08
p1847
I00
tp1848
a(Vmtao
p1849
VEE 120
p1850
Vfa08
p1851
I00
tp1852
a(Vmtao
p1853
VCS 61A
p1854
Vfa08
p1855
I00
tp1856
a(Vmtao
p1857
VCS 61BL
p1858
Vfa08
p1859
I00
tp1860
a(Vsgowda
p1861
VEE 20N
p1862
Vfa08
p1863
I00
tp1864
a(Vsgowda
p1865
VMATH 113
p1866
Vfa08
p1867
I00
tp1868
a(Vsgowda
p1869
VEE 40
p1870
Vfa08
p1871
I00
tp1872
a(Vsgowda
p1873
VMATH 1B
p1874
Vfa08
p1875
I00
tp1876
a(Vsgowda
p1877
VMATH 53
p1878
Vfa08
p1879
I00
tp1880
a(Vsgowda
p1881
VEE 226A
p1882
Vfa08
p1883
I01
tp1884
a(Vsgowda
p1885
VEE 120
p1886
Vfa08
p1887
I00
tp1888
a(Vsgowda
p1889
VEE 121
p1890
Vfa08
p1891
I00
tp1892
a(Vsgowda
p1893
VEE 117
p1894
Vfa08
p1895
I01
tp1896
a(Vsgowda
p1897
VEE 123
p1898
Vfa08
p1899
I00
tp1900
a(Vsgowda
p1901
VCS 61A
p1902
Vfa08
p1903
I00
tp1904
a(Vsgowda
p1905
VCS 61B
p1906
Vfa08
p1907
I00
tp1908
a(Vsgowda
p1909
VCS 61C
p1910
Vfa08
p1911
I00
tp1912
a(Vsgowda
p1913
VMATH 54
p1914
Vfa08
p1915
I00
tp1916
a(Vsgowda
p1917
VPHYS 7A
p1918
Vfa08
p1919
I00
tp1920
a(Vsgowda
p1921
VPHYS 7B
p1922
Vfa08
p1923
I00
tp1924
a(Vsgowda
p1925
VMATH 110
p1926
Vfa08
p1927
I01
tp1928
a(Vsgowda
p1929
VCS 150
p1930
Vfa08
p1931
I00
tp1932
a(Vsgowda
p1933
VEE 126
p1934
Vfa08
p1935
I00
tp1936
a(Vmin
p1937
VMATH H110
p1938
Vfa08
p1939
I00
tp1940
a(Vmin
p1941
VMATH H113
p1942
Vfa08
p1943
I00
tp1944
a(Vmin
p1945
VCS 61A
p1946
Vfa08
p1947
I00
tp1948
a(Vmin
p1949
VCS 61B
p1950
Vfa08
p1951
I00
tp1952
a(Vmin
p1953
VCS 61C
p1954
Vfa08
p1955
I00
tp1956
a(Vmin
p1957
VCS 70
p1958
Vfa08
p1959
I00
tp1960
a(Vmin
p1961
VMATH H185
p1962
Vfa08
p1963
I00
tp1964
a(Vmin
p1965
VCS 162
p1966
Vfa08
p1967
I00
tp1968
a(Vmin
p1969
VEE 40
p1970
Vfa08
p1971
I00
tp1972
a(Vmin
p1973
VCS 170
p1974
Vfa08
p1975
I00
tp1976
a(Vmin
p1977
VCS 172
p1978
Vfa08
p1979
I00
tp1980
a(Vmin
p1981
VCS 174
p1982
Vfa08
p1983
I00
tp1984
a(Vmin
p1985
VCS 188
p1986
Vfa08
p1987
I00
tp1988
a(Vmin
p1989
VCS C281A
p1990
Vfa08
p1991
I01
tp1992
a(Vmin
p1993
VEE 20N
p1994
Vfa08
p1995
I00
tp1996
a(Vmin
p1997
VMATH 250A
p1998
Vfa08
p1999
I00
tp2000
a(Vmin
p2001
VPHYS H7A
p2002
Vfa08
p2003
I00
tp2004
a(Vmin
p2005
VPHYS H7B
p2006
Vfa08
p2007
I00
tp2008
a(Vmin
p2009
VMATH 202A
p2010
Vfa08
p2011
I01
tp2012
a(Vmin
p2013
VMATH 53
p2014
Vfa08
p2015
I00
tp2016
a(Vmin
p2017
VPHYS 137A
p2018
Vfa08
p2019
I00
tp2020
a(Vmin
p2021
VMATH 54
p2022
Vfa08
p2023
I00
tp2024
a(Vmin
p2025
VMATH 143
p2026
Vfa08
p2027
I01
tp2028
a(Vmin
p2029
VMATH H104
p2030
Vfa08
p2031
I00
tp2032
a(Vkmowery
p2033
VCS 161
p2034
Vfa08
p2035
I00
tp2036
a(Vkmowery
p2037
VCS 162
p2038
Vfa08
p2039
I00
tp2040
a(Vkmowery
p2041
VCS 164
p2042
Vfa08
p2043
I00
tp2044
a(Vkmowery
p2045
VEE 40
p2046
Vfa08
p2047
I00
tp2048
a(Vkmowery
p2049
VCS 170
p2050
Vfa08
p2051
I00
tp2052
a(Vkmowery
p2053
VCS 172
p2054
Vfa08
p2055
I00
tp2056
a(Vkmowery
p2057
VCS 188
p2058
Vfa08
p2059
I00
tp2060
a(Vkmowery
p2061
VEE 20N
p2062
Vfa08
p2063
I00
tp2064
a(Vkmowery
p2065
VCS 150
p2066
Vfa08
p2067
I01
tp2068
a(Vkmowery
p2069
VCS 61A
p2070
Vfa08
p2071
I00
tp2072
a(Vkmowery
p2073
VCS 61B
p2074
Vfa08
p2075
I00
tp2076
a(Vkmowery
p2077
VCS 61C
p2078
Vfa08
p2079
I00
tp2080
a(Vkmowery
p2081
VCS 70
p2082
Vfa08
p2083
I00
tp2084
a(Vingrid
p2085
VEE 20N
p2086
Vfa08
p2087
I00
tp2088
a(Vingrid
p2089
VEE 40
p2090
Vfa08
p2091
I00
tp2092
a(Vingrid
p2093
VEE 120
p2094
Vfa08
p2095
I00
tp2096
a(Vingrid
p2097
VMATH 53
p2098
Vfa08
p2099
I00
tp2100
a(Vingrid
p2101
VCS 9E
p2102
Vfa08
p2103
I00
tp2104
a(Vingrid
p2105
VCS 61A
p2106
Vfa08
p2107
I00
tp2108
a(Vingrid
p2109
VCS 61BL
p2110
Vfa08
p2111
I00
tp2112
a(Vingrid
p2113
VCS 61C
p2114
Vfa08
p2115
I00
tp2116
a(Vingrid
p2117
VCS 70
p2118
Vfa08
p2119
I00
tp2120
a(Vingrid
p2121
VPHYS 7B
p2122
Vfa08
p2123
I00
tp2124
a(Vingrid
p2125
VPHYS 7A
p2126
Vfa08
p2127
I00
tp2128
a(Vingrid
p2129
VMATH 54
p2130
Vfa08
p2131
I00
tp2132
a(Vackner
p2133
VCS 160
p2134
Vfa08
p2135
I00
tp2136
a(Vackner
p2137
VCS 162
p2138
Vfa08
p2139
I00
tp2140
a(Vackner
p2141
VCS 164
p2142
Vfa08
p2143
I00
tp2144
a(Vackner
p2145
VCS 170
p2146
Vfa08
p2147
I00
tp2148
a(Vackner
p2149
VCS 186
p2150
Vfa08
p2151
I00
tp2152
a(Vackner
p2153
VCS 188
p2154
Vfa08
p2155
I00
tp2156
a(Vackner
p2157
VMATH 53
p2158
Vfa08
p2159
I00
tp2160
a(Vackner
p2161
VEE 126
p2162
Vfa08
p2163
I01
tp2164
a(Vackner
p2165
VCS 61A
p2166
Vfa08
p2167
I00
tp2168
a(Vackner
p2169
VCS 9H
p2170
Vfa08
p2171
I00
tp2172
a(Vackner
p2173
VCS 161
p2174
Vfa08
p2175
I01
tp2176
a(Vackner
p2177
VCS 61C
p2178
Vfa08
p2179
I00
tp2180
a(Vackner
p2181
VCS 70
p2182
Vfa08
p2183
I00
tp2184
a(Vackner
p2185
VMATH 54
p2186
Vfa08
p2187
I00
tp2188
a(Vachaudhari
p2189
VEE 20N
p2190
Vfa08
p2191
I00
tp2192
a(Vachaudhari
p2193
VEE 40
p2194
Vfa08
p2195
I00
tp2196
a(Vachaudhari
p2197
VCS 161
p2198
Vfa08
p2199
I01
tp2200
a(Vachaudhari
p2201
VEE 120
p2202
Vfa08
p2203
I00
tp2204
a(Vachaudhari
p2205
VCS 162
p2206
Vfa08
p2207
I01
tp2208
a(Vachaudhari
p2209
VCS 61A
p2210
Vfa08
p2211
I00
tp2212
a(Vachaudhari
p2213
VCS 61BL
p2214
Vfa08
p2215
I00
tp2216
a(Vachaudhari
p2217
VCS 61C
p2218
Vfa08
p2219
I00
tp2220
a(Vaimee
p2221
VEE 20N
p2222
Vfa08
p2223
I00
tp2224
a(Vaimee
p2225
VEE 40
p2226
Vfa08
p2227
I00
tp2228
a(Vaimee
p2229
VEE 105
p2230
Vfa08
p2231
I00
tp2232
a(Vaimee
p2233
VPHYS 141A
p2234
Vfa08
p2235
I01
tp2236
a(Vaimee
p2237
VCS 61A
p2238
Vfa08
p2239
I00
tp2240
a(Vaimee
p2241
VCS 61B
p2242
Vfa08
p2243
I00
tp2244
a(Vaimee
p2245
VEE 141
p2246
Vfa08
p2247
I00
tp2248
a(Vaimee
p2249
VEE 143
p2250
Vfa08
p2251
I00
tp2252
a(Vaimee
p2253
VEE 117
p2254
Vfa08
p2255
I01
tp2256
a(Vrzheng
p2257
VCS 161
p2258
Vfa08
p2259
I00
tp2260
a(Vrzheng
p2261
VEE 20N
p2262
Vfa08
p2263
I00
tp2264
a(Vrzheng
p2265
VCS 170
p2266
Vfa08
p2267
I00
tp2268
a(Vrzheng
p2269
VCS 172
p2270
Vfa08
p2271
I00
tp2272
a(Vrzheng
p2273
VCS 184
p2274
Vfa08
p2275
I00
tp2276
a(Vrzheng
p2277
VCS 188
p2278
Vfa08
p2279
I00
tp2280
a(Vrzheng
p2281
VCS 174
p2282
Vfa08
p2283
I01
tp2284
a(Vrzheng
p2285
VCS 162
p2286
Vfa08
p2287
I00
tp2288
a(Vrzheng
p2289
VEE 120
p2290
Vfa08
p2291
I00
tp2292
a(Vrzheng
p2293
VCS 150
p2294
Vfa08
p2295
I01
tp2296
a(Vrzheng
p2297
VEE 123
p2298
Vfa08
p2299
I00
tp2300
a(Vrzheng
p2301
VCS 61A
p2302
Vfa08
p2303
I00
tp2304
a(Vrzheng
p2305
VCS 61B
p2306
Vfa08
p2307
I00
tp2308
a(Vrzheng
p2309
VCS 61C
p2310
Vfa08
p2311
I00
tp2312
a(Vrzheng
p2313
VEE 126
p2314
Vfa08
p2315
I00
tp2316
a(Vmattea
p2317
VEE C145L
p2318
Vfa08
p2319
I00
tp2320
a(Vmattea
p2321
VEE 20N
p2322
Vfa08
p2323
I00
tp2324
a(Vmattea
p2325
VEE 40
p2326
Vfa08
p2327
I00
tp2328
a(Vmattea
p2329
VCS 169
p2330
Vfa08
p2331
I00
tp2332
a(Vmattea
p2333
VCS C182
p2334
Vfa08
p2335
I00
tp2336
a(Vmattea
p2337
VEE 120
p2338
Vfa08
p2339
I00
tp2340
a(Vmattea
p2341
VCS 188
p2342
Vfa08
p2343
I01
tp2344
a(Vmattea
p2345
VCS 9E
p2346
Vfa08
p2347
I00
tp2348
a(Vmattea
p2349
VCS 9F
p2350
Vfa08
p2351
I00
tp2352
a(Vmattea
p2353
VCS 61A
p2354
Vfa08
p2355
I00
tp2356
a(Vmattea
p2357
VCS 61B
p2358
Vfa08
p2359
I00
tp2360
a(Vmattea
p2361
VCS 61C
p2362
Vfa08
p2363
I00
tp2364
a(Vmattea
p2365
VEE 126
p2366
Vfa08
p2367
I01
tp2368
a(Vjyan
p2369
VMATH 53
p2370
Vfa08
p2371
I00
tp2372
a(Vjyan
p2373
VMATH 54
p2374
Vfa08
p2375
I00
tp2376
a(Vjyan
p2377
VCS 61B
p2378
Vfa08
p2379
I00
tp2380
a(Vjyan
p2381
VEE 40
p2382
Vfa08
p2383
I01
tp2384
a(Vjyan
p2385
VPHYS 7A
p2386
Vfa08
p2387
I00
tp2388
a(Vjyan
p2389
VCS 70
p2390
Vfa08
p2391
I01
tp2392
a(Vjyan
p2393
VPHYS 7B
p2394
Vfa08
p2395
I00
tp2396
a(Vjyan
p2397
VCS 61A
p2398
Vfa08
p2399
I00
tp2400
a(Vsjavdani
p2401
VMATH 110
p2402
Vfa08
p2403
I00
tp2404
a(Vsjavdani
p2405
VEE 20N
p2406
Vfa08
p2407
I00
tp2408
a(Vsjavdani
p2409
VEE 40
p2410
Vfa08
p2411
I00
tp2412
a(Vsjavdani
p2413
VCS 188
p2414
Vfa08
p2415
I01
tp2416
a(Vsjavdani
p2417
VEE C125
p2418
Vfa08
p2419
I01
tp2420
a(Vsjavdani
p2421
VEE 120
p2422
Vfa08
p2423
I00
tp2424
a(Vsjavdani
p2425
VMATH 53
p2426
Vfa08
p2427
I00
tp2428
a(Vsjavdani
p2429
VCS 162
p2430
Vfa08
p2431
I01
tp2432
a(Vsjavdani
p2433
VCS 61A
p2434
Vfa08
p2435
I00
tp2436
a(Vsjavdani
p2437
VCS 61BL
p2438
Vfa08
p2439
I00
tp2440
a(Vsjavdani
p2441
VCS 61C
p2442
Vfa08
p2443
I00
tp2444
a(Vsjavdani
p2445
VCS 70
p2446
Vfa08
p2447
I00
tp2448
a(Vsjavdani
p2449
VPHYS 7B
p2450
Vfa08
p2451
I00
tp2452
a(Vsjavdani
p2453
VPHYS 7A
p2454
Vfa08
p2455
I00
tp2456
a(Vsjavdani
p2457
VMATH 54
p2458
Vfa08
p2459
I00
tp2460
a(Vjhoffman
p2461
VMATH 110
p2462
Vfa08
p2463
I00
tp2464
a(Vjhoffman
p2465
VEE 20N
p2466
Vfa08
p2467
I00
tp2468
a(Vjhoffman
p2469
VEE 40
p2470
Vfa08
p2471
I00
tp2472
a(Vjhoffman
p2473
VCS 188
p2474
Vfa08
p2475
I01
tp2476
a(Vjhoffman
p2477
VMATH 1B
p2478
Vfa08
p2479
I00
tp2480
a(Vjhoffman
p2481
VCS 3L
p2482
Vfa08
p2483
I00
tp2484
a(Vjhoffman
p2485
VMATH 53
p2486
Vfa08
p2487
I00
tp2488
a(Vjhoffman
p2489
VCS 61A
p2490
Vfa08
p2491
I00
tp2492
a(Vjhoffman
p2493
VCS 61B
p2494
Vfa08
p2495
I00
tp2496
a(Vjhoffman
p2497
VCS 61C
p2498
Vfa08
p2499
I00
tp2500
a(Vjhoffman
p2501
VEE 120
p2502
Vfa08
p2503
I01
tp2504
a(Vjhoffman
p2505
VPHYS 7B
p2506
Vfa08
p2507
I00
tp2508
a(Vjhoffman
p2509
VEE 105
p2510
Vfa08
p2511
I01
tp2512
a(Vjhoffman
p2513
VMATH 54
p2514
Vfa08
p2515
I00
tp2516
a(Vpearce
p2517
VEE 20N
p2518
Vfa08
p2519
I00
tp2520
a(Vpearce
p2521
VEE 40
p2522
Vfa08
p2523
I00
tp2524
a(Vpearce
p2525
VMATH 1A
p2526
Vfa08
p2527
I00
tp2528
a(Vpearce
p2529
VMATH 1B
p2530
Vfa08
p2531
I00
tp2532
a(Vpearce
p2533
VEE 120
p2534
Vfa08
p2535
I00
tp2536
a(Vpearce
p2537
VMATH 55
p2538
Vfa08
p2539
I00
tp2540
a(Vpearce
p2541
VMATH 53
p2542
Vfa08
p2543
I00
tp2544
a(Vpearce
p2545
VCS 162
p2546
Vfa08
p2547
I01
tp2548
a(Vpearce
p2549
VCS 61A
p2550
Vfa08
p2551
I00
tp2552
a(Vpearce
p2553
VCS 61B
p2554
Vfa08
p2555
I00
tp2556
a(Vpearce
p2557
VCS 161
p2558
Vfa08
p2559
I01
tp2560
a(Vpearce
p2561
VCS 61C
p2562
Vfa08
p2563
I00
tp2564
a(Vpearce
p2565
VPHYS 7A
p2566
Vfa08
p2567
I00
tp2568
a(Vpearce
p2569
VPHYS 7B
p2570
Vfa08
p2571
I00
tp2572
a(Vpearce
p2573
VPHYS 7C
p2574
Vfa08
p2575
I00
tp2576
a(Vpearce
p2577
VMATH 54
p2578
Vfa08
p2579
I00
tp2580
a(Vsiddharth
p2581
VEE 20N
p2582
Vfa08
p2583
I00
tp2584
a(Vsiddharth
p2585
VEE 40
p2586
Vfa08
p2587
I00
tp2588
a(Vsiddharth
p2589
VEE 120
p2590
Vfa08
p2591
I00
tp2592
a(Vsiddharth
p2593
VEE 126
p2594
Vfa08
p2595
I00
tp2596
a(Vsiddharth
p2597
VMATH 110
p2598
Vfa08
p2599
I01
tp2600
a(Vsiddharth
p2601
VCS 70
p2602
Vfa08
p2603
I00
tp2604
a(Vsiddharth
p2605
VMATH 54
p2606
Vfa08
p2607
I00
tp2608
a(Vhzarka
p2609
VCS 161
p2610
Vfa08
p2611
I00
tp2612
a(Vhzarka
p2613
VCS 170
p2614
Vfa08
p2615
I00
tp2616
a(Vhzarka
p2617
VCS 174
p2618
Vfa08
p2619
I00
tp2620
a(Vhzarka
p2621
VCS 186
p2622
Vfa08
p2623
I00
tp2624
a(Vhzarka
p2625
VCS 188
p2626
Vfa08
p2627
I00
tp2628
a(Vhzarka
p2629
VMATH 55
p2630
Vfa08
p2631
I00
tp2632
a(Vhzarka
p2633
VCS 61A
p2634
Vfa08
p2635
I00
tp2636
a(Vhzarka
p2637
VCS 61B
p2638
Vfa08
p2639
I00
tp2640
a(Vhzarka
p2641
VCS 61C
p2642
Vfa08
p2643
I00
tp2644
a(Vhzarka
p2645
VEE 126
p2646
Vfa08
p2647
I00
tp2648
a.