(dp0
V10-10-07-game-night
p1
(Vhkn_everyone
p2
Vhkn_candidate_plus
p3
tp4
sV10-05-08-kayaking
p5
(Vhkn_everyone
p6
Vhkn_candidate_plus
p7
tp8
sV11-14-07-ee20-review-session-wozniak-lounge-430-soda
p9
(Vhkn_everyone
p10
Vhkn_member_plus
p11
tp12
sV10-14-07-cs61c-review-session
p13
(Vhkn_everyone
p14
Vhkn_candidate_plus
p15
tp16
sV03-15-08-photo-scav-hunt
p17
(Vhkn_everyone
p18
Vhkn_member_plus
p19
tp20
sV10-25-08-alameda-food-bank
p21
(Vhkn_everyone
p22
Vhkn_candidate_plus
p23
tp24
sV04-21-07-cal-day-cory-hall-tours
p25
(Vhkn_everyone
p26
Vhkn_candidate_plus
p27
tp28
sV04-23-08-capture-the-flag
p29
(Vhkn_officer
p30
Vhkn_member_plus
p31
tp32
sV09-02-08-new-student-reception
p33
(Vhkn_officer
p34
Vhkn_officer
p35
tp36
sV11-13-07-operation-support-the-cs-150-troops
p37
(Vhkn_everyone
p38
Vhkn_candidate_plus
p39
tp40
sV03-19-08-crafts-night
p41
(Vhkn_everyone
p42
Vhkn_candidate_plus
p43
tp44
sV04-30-07-yoga
p45
(Vhkn_officer
p46
Vhkn_candidate_plus
p47
tp48
sV12-08-07-banquet
p49
(Vhkn_officer
p50
Vhkn_candidate_plus
p51
tp52
sV09-05-08-officer-retreat
p53
(Vhkn_officer
p54
Vhkn_officer
p55
tp56
sV10-24-07-peer-advising
p57
(Vhkn_everyone
p58
Vhkn_candidate_plus
p59
tp60
sV11-16-07-ice-skating
p61
(Vhkn_officer
p62
Vhkn_officer
p63
tp64
sV11-08-08-renew-the-zoo
p65
(Vhkn_everyone
p66
Vhkn_candidate_plus
p67
tp68
sV11-14-07-general-meeting-3
p69
(Vhkn_officer
p70
Vhkn_candidate_plus
p71
tp72
sV11-02-08-paintball
p73
(Vhkn_everyone
p74
Vhkn_candidate_plus
p75
tp76
sV11-29-07-faces-of-eecs-research
p77
(Vhkn_everyone
p78
Vhkn_candidate_plus
p79
tp80
sV12-09-07-officer-elections
p81
(Vhkn_officer
p82
Vhkn_member_plus
p83
tp84
sV04-25-08-alumni-appreciation-dinner
p85
(Vhkn_everyone
p86
Vhkn_candidate_plus
p87
tp88
sV04-11-08-alumni-broomball
p89
(Vhkn_officer
p90
Vhkn_candidate_plus
p91
tp92
sV11-30-07-packet-turn-in
p93
(Vhkn_everyone
p94
Vhkn_member_plus
p95
tp96
sV04-24-08-fentons-night
p97
(Vhkn_officer
p98
Vhkn_officer
p99
tp100
sV09-24-07-yahoo-infosession
p101
(Vhkn_everyone
p102
Vhkn_member_plus
p103
tp104
sV09-26-08-ice-cream-social
p105
(Vhkn_everyone
p106
Vhkn_candidate_plus
p107
tp108
sV10-30-08-general-meeting-2
p109
(Vhkn_everyone
p110
Vhkn_candidate_plus
p111
tp112
sV12-02-07-ee40-review-session
p113
(Vhkn_officer
p114
Vhkn_member_plus
p115
tp116
sV09-10-08-google-tech-talk
p117
(Vhkn_everyone
p118
Vhkn_everyone
p119
tp120
sV09-30-07-soccer
p121
(Vhkn_everyone
p122
Vhkn_candidate_plus
p123
tp124
sV04-13-07-peer-advising-session
p125
(Vhkn_officer
p126
Vhkn_officer
p127
tp128
sV03-25-08-spring-break
p129
(Vhkn_officer
p130
Vhkn_officer
p131
tp132
sV10-04-07-greenhill-info-session
p133
(Vhkn_officer
p134
Vhkn_officer
p135
tp136
sV09-20-08-members-potluck
p137
(Vhkn_everyone
p138
Vhkn_candidate_plus
p139
tp140
sV12-13-07-final-week-begins
p141
(Vhkn_officer
p142
Vhkn_officer
p143
tp144
sV10-20-07-making-strides-against-breast-cancer
p145
(Vhkn_everyone
p146
Vhkn_candidate_plus
p147
tp148
sV02-01-07-ice-cream-social-for-members
p149
(Vhkn_everyone
p150
Vhkn_member_plus
p151
tp152
sV04-07-08-cs70-review-session
p153
(Vhkn_officer
p154
Vhkn_officer
p155
tp156
sV09-15-08-citadel-infosession
p157
(Vhkn_everyone
p158
Vhkn_everyone
p159
tp160
sV03-04-08-intersil-infosession
p161
(Vhkn_everyone
p162
Vhkn_member_plus
p163
tp164
sV10-17-08-rock-climbing
p165
(Vhkn_everyone
p166
Vhkn_candidate_plus
p167
tp168
sV11-07-07-meebo-infosession
p169
(Vhkn_officer
p170
Vhkn_officer
p171
tp172
sV12-16-07-study-and-de-stress-day
p173
(Vhkn_everyone
p174
Vhkn_candidate_plus
p175
tp176
sV11-12-08-general-meeting-3
p177
(Vhkn_everyone
p178
Vhkn_candidate_plus
p179
tp180
sV09-28-07-ice-cream-social-gelato
p181
(Vhkn_officer
p182
Vhkn_candidate_plus
p183
tp184
sV11-18-07-alameda-food-bank
p185
(Vhkn_officer
p186
Vhkn_member_plus
p187
tp188
sV01-24-08-qualcomm-infosession
p189
(Vhkn_everyone
p190
Vhkn_candidate_plus
p191
tp192
sV02-16-08-cs61b-midterm-review-session
p193
(Vhkn_officer
p194
Vhkn_officer
p195
tp196
sV09-29-08-candidate-convos
p197
(Vhkn_everyone
p198
Vhkn_candidate_plus
p199
tp200
sV03-24-08-spring-break
p201
(Vhkn_everyone
p202
Vhkn_candidate_plus
p203
tp204
sV11-30-07-bbq
p205
(Vhkn_everyone
p206
Vhkn_officer
p207
tp208
sV10-19-08-kayaking-alternate
p209
(Vhkn_everyone
p210
Vhkn_candidate_plus
p211
tp212
sV03-04-08-general-meeting-1
p213
(Vhkn_officer
p214
Vhkn_candidate_plus
p215
tp216
sV10-29-07-infosys-info-session
p217
(Vhkn_everyone
p218
Vhkn_candidate_plus
p219
tp220
sV11-09-07-alumni-appreciation-dinner
p221
(Vhkn_officer
p222
Vhkn_officer
p223
tp224
sV03-15-08-hkn-ee40-review-session
p225
(Vhkn_everyone
p226
Vhkn_member_plus
p227
tp228
sV02-22-08-engineering-sports-night
p229
(Vhkn_everyone
p230
Vhkn_officer
p231
tp232
sV09-11-08-microsoft-tech-talk
p233
(Vhkn_everyone
p234
Vhkn_everyone
p235
tp236
sV10-18-07-bowling
p237
(Vhkn_officer
p238
Vhkn_member_plus
p239
tp240
sV05-13-07-study-and-destress-day
p241
(Vhkn_everyone
p242
Vhkn_officer
p243
tp244
sV10-07-07-jelly-belly-factory-tour
p245
(Vhkn_everyone
p246
Vhkn_candidate_plus
p247
tp248
sV04-29-07-dim-sum-at-legendary-palace
p249
(Vhkn_everyone
p250
Vhkn_candidate_plus
p251
tp252
sV05-06-07-elections
p253
(Vhkn_everyone
p254
Vhkn_member_plus
p255
tp256
sV11-04-08-movie-night
p257
(Vhkn_everyone
p258
Vhkn_candidate_plus
p259
tp260
sV09-19-07-informatica-infosession
p261
(Vhkn_officer
p262
Vhkn_officer
p263
tp264
sV09-26-08-candidate-convos
p265
(Vhkn_everyone
p266
Vhkn_candidate_plus
p267
tp268
sV10-24-07-fentons
p269
(Vhkn_officer
p270
Vhkn_officer
p271
tp272
sV04-26-08-potluck
p273
(Vhkn_officer
p274
Vhkn_member_plus
p275
tp276
sV03-16-08-sf-comedy-showcase
p277
(Vhkn_officer
p278
Vhkn_member_plus
p279
tp280
sV10-12-08-blue-angels
p281
(Vhkn_everyone
p282
Vhkn_candidate_plus
p283
tp284
sV02-29-08-candidate-convos
p285
(Vhkn_officer
p286
Vhkn_officer
p287
tp288
sV05-05-07-initiation
p289
(Vhkn_officer
p290
Vhkn_member_plus
p291
tp292
sV10-05-07-upe-broomball
p293
(Vhkn_everyone
p294
Vhkn_officer
p295
tp296
sV03-28-08-spring-break
p297
(Vhkn_everyone
p298
Vhkn_candidate_plus
p299
tp300
sV11-21-08-lunch-with-the-president
p301
(Vhkn_everyone
p302
Vhkn_candidate_plus
p303
tp304
sV02-05-08-cisco-day
p305
(Vhkn_officer
p306
Vhkn_candidate_plus
p307
tp308
sV11-06-07-capture-the-flag-with-tbp
p309
(Vhkn_officer
p310
Vhkn_candidate_plus
p311
tp312
sV09-24-08-candidate-meeting
p313
(Vhkn_everyone
p314
Vhkn_candidate_plus
p315
tp316
sV05-05-07-banquet
p317
(Vhkn_officer
p318
Vhkn_officer
p319
tp320
sV12-01-07-dim-sum
p321
(Vhkn_everyone
p322
Vhkn_member_plus
p323
tp324
sV11-01-07-general-meeting-2
p325
(Vhkn_everyone
p326
Vhkn_officer
p327
tp328
sV09-10-08-google-lightning-talks
p329
(Vhkn_everyone
p330
Vhkn_everyone
p331
tp332
sV02-29-08-candidates-ice-cream-social
p333
(Vhkn_everyone
p334
Vhkn_officer
p335
tp336
sV02-20-08-internship-and-summer-job-fair
p337
(Vhkn_everyone
p338
Vhkn_officer
p339
tp340
sV09-28-07-candidate-convos
p341
(Vhkn_officer
p342
Vhkn_officer
p343
tp344
sV02-07-08-yahoo-infosession
p345
(Vhkn_officer
p346
Vhkn_officer
p347
tp348
sV03-26-08-spring-break
p349
(Vhkn_officer
p350
Vhkn_candidate_plus
p351
tp352
sV11-13-07-crafts-night
p353
(Vhkn_everyone
p354
Vhkn_member_plus
p355
tp356
sV09-12-08-members-rock-climbing
p357
(Vhkn_everyone
p358
Vhkn_candidate_plus
p359
tp360
sV10-20-07-sports-night
p361
(Vhkn_everyone
p362
Vhkn_officer
p363
tp364
sV03-02-08-scharffenberger-chocolate-factory-tour
p365
(Vhkn_everyone
p366
Vhkn_officer
p367
tp368
sV03-27-08-spring-break
p369
(Vhkn_everyone
p370
Vhkn_candidate_plus
p371
tp372
sV11-04-07-sf-comedy-showcase
p373
(Vhkn_everyone
p374
Vhkn_candidate_plus
p375
tp376
sV02-23-08-engineering-for-kids-day
p377
(Vhkn_everyone
p378
Vhkn_member_plus
p379
tp380
sV02-10-08-members-meeting-and-potluck
p381
(Vhkn_everyone
p382
Vhkn_member_plus
p383
tp384
sV02-19-08-avanade-tech-talk
p385
(Vhkn_everyone
p386
Vhkn_officer
p387
tp388
sV11-23-08-paintball-alternate
p389
(Vhkn_everyone
p390
Vhkn_candidate_plus
p391
tp392
sV11-30-07-lunch-with-the-prez
p393
(Vhkn_everyone
p394
Vhkn_officer
p395
tp396
sV10-13-07-cs61b-review-session
p397
(Vhkn_officer
p398
Vhkn_officer
p399
tp400
sV10-30-08-pumpkin-carving
p401
(Vhkn_everyone
p402
Vhkn_candidate_plus
p403
tp404
sV09-03-08-members-gelato-night
p405
(Vhkn_member_plus
p406
Vhkn_member_plus
p407
tp408
sV04-29-08-staff-appreciation-bakeoff
p409
(Vhkn_everyone
p410
Vhkn_member_plus
p411
tp412
sV04-27-08-atoms-science-club-intro-to-em
p413
(Vhkn_officer
p414
Vhkn_officer
p415
tp416
sV11-20-08-sushi-night
p417
(Vhkn_everyone
p418
Vhkn_candidate_plus
p419
tp420
sV09-08-07-hkn-members-meeting-and-potluck
p421
(Vhkn_everyone
p422
Vhkn_member_plus
p423
tp424
sV04-12-08-cal-day
p425
(Vhkn_officer
p426
Vhkn_candidate_plus
p427
tp428
sV10-21-07-mini-golf
p429
(Vhkn_officer
p430
Vhkn_member_plus
p431
tp432
sV04-25-07-2k-sports-infosession
p433
(Vhkn_officer
p434
Vhkn_candidate_plus
p435
tp436
sV09-25-07-goldman-sachs-infosession
p437
(Vhkn_everyone
p438
Vhkn_candidate_plus
p439
tp440
sV04-18-08-rock-climbing
p441
(Vhkn_officer
p442
Vhkn_member_plus
p443
tp444
sV10-24-08-broomball
p445
(Vhkn_everyone
p446
Vhkn_candidate_plus
p447
tp448
sV09-04-08-kips-mixer
p449
(Vhkn_officer
p450
Vhkn_officer
p451
tp452
sV04-13-08-ultimate-frisbee
p453
(Vhkn_officer
p454
Vhkn_officer
p455
tp456
sV12-10-07-instruction-ends
p457
(Vhkn_officer
p458
Vhkn_officer
p459
tp460
sV11-02-07-alumni-broomball-update
p461
(Vhkn_officer
p462
Vhkn_candidate_plus
p463
tp464
sV11-27-07-big-c-hike
p465
(Vhkn_officer
p466
Vhkn_candidate_plus
p467
tp468
sV02-28-08-candidate-convos
p469
(Vhkn_everyone
p470
Vhkn_candidate_plus
p471
tp472
sV10-18-08-photo-scavenger-hunt
p473
(Vhkn_everyone
p474
Vhkn_candidate_plus
p475
tp476
sV10-03-08-alumni-broomball
p477
(Vhkn_everyone
p478
Vhkn_candidate_plus
p479
tp480
sV09-25-07-candidate-meeting
p481
(Vhkn_officer
p482
Vhkn_officer
p483
tp484
sV10-22-07-quia-infosession
p485
(Vhkn_officer
p486
Vhkn_member_plus
p487
tp488
sV10-07-08-general-meeting-1
p489
(Vhkn_everyone
p490
Vhkn_candidate_plus
p491
tp492
sV04-22-07-ultimate-vs-tbp
p493
(Vhkn_everyone
p494
Vhkn_member_plus
p495
tp496
sV04-09-08-game-night
p497
(Vhkn_everyone
p498
Vhkn_officer
p499
tp500
sV12-08-07-initiation
p501
(Vhkn_officer
p502
Vhkn_officer
p503
tp504
sV09-11-08-why-go-to-graduate-school-and-how-to-get-into-the-program-of-your-dreams
p505
(Vhkn_everyone
p506
Vhkn_everyone
p507
tp508
sV11-12-07-staff-appreciation-bake-off
p509
(Vhkn_everyone
p510
Vhkn_candidate_plus
p511
tp512
sV12-08-07-after-banquet-awesomeness
p513
(Vhkn_everyone
p514
Vhkn_member_plus
p515
tp516
sV10-08-08-fentons
p517
(Vhkn_everyone
p518
Vhkn_candidate_plus
p519
tp520
sV03-14-07-pi-night-with-tbp-and-awe
p521
(Vhkn_officer
p522
Vhkn_candidate_plus
p523
tp524
sV04-07-08-peer-advising
p525
(Vhkn_officer
p526
Vhkn_candidate_plus
p527
tp528
sV10-05-08-big-c-hike
p529
(Vhkn_everyone
p530
Vhkn_candidate_plus
p531
tp532
sV11-16-08-beach-bonfire
p533
(Vhkn_everyone
p534
Vhkn_candidate_plus
p535
tp536
sV03-08-08-renew-the-zoo
p537
(Vhkn_everyone
p538
Vhkn_officer
p539
tp540
sV03-09-08-broomball-with-upe
p541
(Vhkn_everyone
p542
Vhkn_member_plus
p543
tp544
sV04-25-07-ruby-on-rails-help-session
p545
(Vhkn_everyone
p546
Vhkn_officer
p547
tp548
sV11-15-08-picnic
p549
(Vhkn_everyone
p550
Vhkn_candidate_plus
p551
tp552
sV09-13-07-members-ice-cream-social
p553
(Vhkn_officer
p554
Vhkn_member_plus
p555
tp556
sV09-02-08-activities-planning-meeting
p557
(Vhkn_officer
p558
Vhkn_officer
p559
tp560
sV02-28-08-cs70-review-session
p561
(Vhkn_everyone
p562
Vhkn_candidate_plus
p563
tp564
sV11-07-08-alumni-appreciation-dinner
p565
(Vhkn_everyone
p566
Vhkn_candidate_plus
p567
tp568
sV03-14-08-pi-night-314
p569
(Vhkn_officer
p570
Vhkn_officer
p571
tp572
sV11-14-08-alumni-appreciation-dinner-alternate
p573
(Vhkn_everyone
p574
Vhkn_candidate_plus
p575
tp576
sV10-07-08-bowling
p577
(Vhkn_everyone
p578
Vhkn_candidate_plus
p579
tp580
sV11-19-07-uhuru-holiday-pies
p581
(Vhkn_officer
p582
Vhkn_member_plus
p583
tp584
sV11-17-07-potluck
p585
(Vhkn_officer
p586
Vhkn_member_plus
p587
tp588
sV10-23-08-game-night
p589
(Vhkn_everyone
p590
Vhkn_candidate_plus
p591
tp592
sV03-13-08-bowling-night
p593
(Vhkn_officer
p594
Vhkn_officer
p595
tp596
sV10-19-08-blue-angels-alternate
p597
(Vhkn_everyone
p598
Vhkn_candidate_plus
p599
tp600
sV10-17-07-amazon-infosession
p601
(Vhkn_everyone
p602
Vhkn_candidate_plus
p603
tp604
sV05-02-07-faces-of-eecs-research
p605
(Vhkn_everyone
p606
Vhkn_member_plus
p607
tp608
sV11-07-08-engineering-sports-night-alternate
p609
(Vhkn_everyone
p610
Vhkn_candidate_plus
p611
tp612
sV04-14-08-peer-advising
p613
(Vhkn_officer
p614
Vhkn_member_plus
p615
tp616
sV11-18-07-cs61c-review-session
p617
(Vhkn_officer
p618
Vhkn_candidate_plus
p619
tp620
sV02-08-08-members-ice-cream-social
p621
(Vhkn_officer
p622
Vhkn_candidate_plus
p623
tp624
sV05-05-07-after-banquet-awesomeness
p625
(Vhkn_officer
p626
Vhkn_candidate_plus
p627
tp628
sV09-09-08-fundamentals-of-applying-to-graduate-school
p629
(Vhkn_everyone
p630
Vhkn_everyone
p631
tp632
sV04-20-08-big-c-hike
p633
(Vhkn_officer
p634
Vhkn_officer
p635
tp636
sV11-09-08-microsoft-oh
p637
(Vhkn_everyone
p638
Vhkn_everyone
p639
tp640
sV02-25-08-candidate-meeting
p641
(Vhkn_everyone
p642
Vhkn_member_plus
p643
tp644
sV09-27-07-candidate-convos
p645
(Vhkn_officer
p646
Vhkn_candidate_plus
p647
tp648
sV11-14-08-engineering-sports-night-alternate
p649
(Vhkn_everyone
p650
Vhkn_candidate_plus
p651
tp652
sV10-14-07-photoscav-hunt
p653
(Vhkn_everyone
p654
Vhkn_candidate_plus
p655
tp656
sV05-08-07-end-of-instruction
p657
(Vhkn_everyone
p658
Vhkn_officer
p659
tp660
sV04-06-08-paintball
p661
(Vhkn_officer
p662
Vhkn_candidate_plus
p663
tp664
sV10-30-07-pumpkin-carving
p665
(Vhkn_everyone
p666
Vhkn_officer
p667
tp668
sV11-02-08-big-c-hike-alternate
p669
(Vhkn_everyone
p670
Vhkn_candidate_plus
p671
tp672
sV10-11-07-general-meeting-1
p673
(Vhkn_everyone
p674
Vhkn_officer
p675
tp676
sV04-23-08-general-meeting-3
p677
(Vhkn_officer
p678
Vhkn_member_plus
p679
tp680
sV11-14-07-operation-support-the-cs-162-troops
p681
(Vhkn_officer
p682
Vhkn_candidate_plus
p683
tp684
sV04-10-08-general-meeting-2
p685
(Vhkn_officer
p686
Vhkn_member_plus
p687
tp688
s.