((S'angelaxhsueh@gmail.com'
p0
S'angela'
p1
tp2
(S'briankim@berkeley.edu'
p3
S'bkim'
p4
tp5
(S'brlam@berkeley.edu'
p6
S'brlam'
p7
tp8
(S'brianrtaylor@berkeley.edu'
p9
S'btay'
p10
tp11
(S'georgechen@berkeley.edu'
p12
S'georgechen'
p13
tp14
(S'ingy@berkeley.edu'
p15
S'ingrid'
p16
tp17
(S'james_liao9@yahoo.com'
p18
S'jliao'
p19
tp20
(S'jprudhomme@berkeley.edu'
p21
S'jared'
p22
tp23
(S'judyhoffman@berkeley.edu'
p24
S'jhoffman'
p25
tp26
(S'mattea@berkeley.edu'
p27
S'mattea'
p28
tp29
(S'mtao@berkeley.edu'
p30
S'mtao'
p31
tp32
(S'niels@berkeley.edu'
p33
S'njoubert'
p34
tp35
(S'shervination@berkeley.edu'
p36
S'sjavdani'
p37
tp38
(S'surajgowda@berkeley.edu'
p39
S'sgowda'
p40
tp41
(S'waynefang@berkeley.edu'
p42
S'wayne'
p43
tp44
(S'yasina@berkeley.edu'
p45
S'aalipoury'
p46
tp47
(S'lahini@berkeley.edu'
p48
S'lahini'
p49
tp50
(S'jtran87@berkeley.edu'
p51
S'jtran'
p52
tp53
(S'ackner@berkeley.edu'
p54
S'ackner'
p55
tp56
(S'patrickau09@berkeley.edu'
p57
S'patrick'
p58
tp59
(S'shahbawany@gmail.com'
p60
S'shah'
p61
tp62
(S'benblackman@berkeley.edu'
p63
S'blackman'
p64
tp65
(S'mawkillio_chang@berkeley.edu'
p66
S'mchang'
p67
tp68
(S'ed_chen@berkeley.edu'
p69
S'edchen'
p70
tp71
(S'eugene_li@berkeley.edu'
p72
S'eugene'
p73
tp74
(S'nihalani@berkeley.edu'
p75
S'vishay'
p76
tp77
(S'suhaasp@berkeley.edu'
p78
S'suhaas'
p79
tp80
(S'hzarka@berkeley.edu'
p81
S'hzarka'
p82
tp83
(S'chrisblay@gmail.com'
p84
S'clay'
p85
tp86
(S'dlo@berkeley.edu'
p87
S'darren'
p88
tp89
(S'kmowery@gmail.com'
p90
S'kmowery'
p91
tp92
(S'mxu87@berkeley.edu'
p93
S'min'
p94
tp95
(S'mehdi_abderezai@berkeley.edu'
p96
S'mabderezai'
p97
tp98
(S'michelleau@berkeley.edu'
p99
S'michelleau'
p100
tp101
(S'charles_scool@berkeley.edu'
p102
S'huhong'
p103
tp104
(S'jeffcjensen@berkeley.edu'
p105
S'jeffcjensen'
p106
tp107
(S'akovacs@berkeley.edu'
p108
S'akovacs'
p109
tp110
(S'sshum@berkeley.edu'
p111
S'sshum'
p112
tp113
(S'wsandy@berkeley.edu'
p114
S'wsandy'
p115
tp116
(S'wongjy@berkeley.edu'
p117
S'wongjy'
p118
tp119
(S'zhangz@berkeley.edu'
p120
S'zhangz'
p121
tp122
(S'gnehzr@berkeley.edu'
p123
S'rzheng'
p124
tp125
tp126
.